
ctarget:     file format elf64-x86-64


Disassembly of section .init:

0000000000401000 <_init>:
  401000:	f3 0f 1e fa          	endbr64 
  401004:	48 83 ec 08          	sub    $0x8,%rsp
  401008:	48 8b 05 e9 5f 00 00 	mov    0x5fe9(%rip),%rax        # 406ff8 <__gmon_start__>
  40100f:	48 85 c0             	test   %rax,%rax
  401012:	74 02                	je     401016 <_init+0x16>
  401014:	ff d0                	call   *%rax
  401016:	48 83 c4 08          	add    $0x8,%rsp
  40101a:	c3                   	ret    

Disassembly of section .plt:

0000000000401020 <.plt>:
  401020:	ff 35 e2 5f 00 00    	push   0x5fe2(%rip)        # 407008 <_GLOBAL_OFFSET_TABLE_+0x8>
  401026:	f2 ff 25 e3 5f 00 00 	bnd jmp *0x5fe3(%rip)        # 407010 <_GLOBAL_OFFSET_TABLE_+0x10>
  40102d:	0f 1f 00             	nopl   (%rax)
  401030:	f3 0f 1e fa          	endbr64 
  401034:	68 00 00 00 00       	push   $0x0
  401039:	f2 e9 e1 ff ff ff    	bnd jmp 401020 <.plt>
  40103f:	90                   	nop
  401040:	f3 0f 1e fa          	endbr64 
  401044:	68 01 00 00 00       	push   $0x1
  401049:	f2 e9 d1 ff ff ff    	bnd jmp 401020 <.plt>
  40104f:	90                   	nop
  401050:	f3 0f 1e fa          	endbr64 
  401054:	68 02 00 00 00       	push   $0x2
  401059:	f2 e9 c1 ff ff ff    	bnd jmp 401020 <.plt>
  40105f:	90                   	nop
  401060:	f3 0f 1e fa          	endbr64 
  401064:	68 03 00 00 00       	push   $0x3
  401069:	f2 e9 b1 ff ff ff    	bnd jmp 401020 <.plt>
  40106f:	90                   	nop
  401070:	f3 0f 1e fa          	endbr64 
  401074:	68 04 00 00 00       	push   $0x4
  401079:	f2 e9 a1 ff ff ff    	bnd jmp 401020 <.plt>
  40107f:	90                   	nop
  401080:	f3 0f 1e fa          	endbr64 
  401084:	68 05 00 00 00       	push   $0x5
  401089:	f2 e9 91 ff ff ff    	bnd jmp 401020 <.plt>
  40108f:	90                   	nop
  401090:	f3 0f 1e fa          	endbr64 
  401094:	68 06 00 00 00       	push   $0x6
  401099:	f2 e9 81 ff ff ff    	bnd jmp 401020 <.plt>
  40109f:	90                   	nop
  4010a0:	f3 0f 1e fa          	endbr64 
  4010a4:	68 07 00 00 00       	push   $0x7
  4010a9:	f2 e9 71 ff ff ff    	bnd jmp 401020 <.plt>
  4010af:	90                   	nop
  4010b0:	f3 0f 1e fa          	endbr64 
  4010b4:	68 08 00 00 00       	push   $0x8
  4010b9:	f2 e9 61 ff ff ff    	bnd jmp 401020 <.plt>
  4010bf:	90                   	nop
  4010c0:	f3 0f 1e fa          	endbr64 
  4010c4:	68 09 00 00 00       	push   $0x9
  4010c9:	f2 e9 51 ff ff ff    	bnd jmp 401020 <.plt>
  4010cf:	90                   	nop
  4010d0:	f3 0f 1e fa          	endbr64 
  4010d4:	68 0a 00 00 00       	push   $0xa
  4010d9:	f2 e9 41 ff ff ff    	bnd jmp 401020 <.plt>
  4010df:	90                   	nop
  4010e0:	f3 0f 1e fa          	endbr64 
  4010e4:	68 0b 00 00 00       	push   $0xb
  4010e9:	f2 e9 31 ff ff ff    	bnd jmp 401020 <.plt>
  4010ef:	90                   	nop
  4010f0:	f3 0f 1e fa          	endbr64 
  4010f4:	68 0c 00 00 00       	push   $0xc
  4010f9:	f2 e9 21 ff ff ff    	bnd jmp 401020 <.plt>
  4010ff:	90                   	nop
  401100:	f3 0f 1e fa          	endbr64 
  401104:	68 0d 00 00 00       	push   $0xd
  401109:	f2 e9 11 ff ff ff    	bnd jmp 401020 <.plt>
  40110f:	90                   	nop
  401110:	f3 0f 1e fa          	endbr64 
  401114:	68 0e 00 00 00       	push   $0xe
  401119:	f2 e9 01 ff ff ff    	bnd jmp 401020 <.plt>
  40111f:	90                   	nop
  401120:	f3 0f 1e fa          	endbr64 
  401124:	68 0f 00 00 00       	push   $0xf
  401129:	f2 e9 f1 fe ff ff    	bnd jmp 401020 <.plt>
  40112f:	90                   	nop
  401130:	f3 0f 1e fa          	endbr64 
  401134:	68 10 00 00 00       	push   $0x10
  401139:	f2 e9 e1 fe ff ff    	bnd jmp 401020 <.plt>
  40113f:	90                   	nop
  401140:	f3 0f 1e fa          	endbr64 
  401144:	68 11 00 00 00       	push   $0x11
  401149:	f2 e9 d1 fe ff ff    	bnd jmp 401020 <.plt>
  40114f:	90                   	nop
  401150:	f3 0f 1e fa          	endbr64 
  401154:	68 12 00 00 00       	push   $0x12
  401159:	f2 e9 c1 fe ff ff    	bnd jmp 401020 <.plt>
  40115f:	90                   	nop
  401160:	f3 0f 1e fa          	endbr64 
  401164:	68 13 00 00 00       	push   $0x13
  401169:	f2 e9 b1 fe ff ff    	bnd jmp 401020 <.plt>
  40116f:	90                   	nop
  401170:	f3 0f 1e fa          	endbr64 
  401174:	68 14 00 00 00       	push   $0x14
  401179:	f2 e9 a1 fe ff ff    	bnd jmp 401020 <.plt>
  40117f:	90                   	nop
  401180:	f3 0f 1e fa          	endbr64 
  401184:	68 15 00 00 00       	push   $0x15
  401189:	f2 e9 91 fe ff ff    	bnd jmp 401020 <.plt>
  40118f:	90                   	nop
  401190:	f3 0f 1e fa          	endbr64 
  401194:	68 16 00 00 00       	push   $0x16
  401199:	f2 e9 81 fe ff ff    	bnd jmp 401020 <.plt>
  40119f:	90                   	nop
  4011a0:	f3 0f 1e fa          	endbr64 
  4011a4:	68 17 00 00 00       	push   $0x17
  4011a9:	f2 e9 71 fe ff ff    	bnd jmp 401020 <.plt>
  4011af:	90                   	nop
  4011b0:	f3 0f 1e fa          	endbr64 
  4011b4:	68 18 00 00 00       	push   $0x18
  4011b9:	f2 e9 61 fe ff ff    	bnd jmp 401020 <.plt>
  4011bf:	90                   	nop
  4011c0:	f3 0f 1e fa          	endbr64 
  4011c4:	68 19 00 00 00       	push   $0x19
  4011c9:	f2 e9 51 fe ff ff    	bnd jmp 401020 <.plt>
  4011cf:	90                   	nop
  4011d0:	f3 0f 1e fa          	endbr64 
  4011d4:	68 1a 00 00 00       	push   $0x1a
  4011d9:	f2 e9 41 fe ff ff    	bnd jmp 401020 <.plt>
  4011df:	90                   	nop
  4011e0:	f3 0f 1e fa          	endbr64 
  4011e4:	68 1b 00 00 00       	push   $0x1b
  4011e9:	f2 e9 31 fe ff ff    	bnd jmp 401020 <.plt>
  4011ef:	90                   	nop
  4011f0:	f3 0f 1e fa          	endbr64 
  4011f4:	68 1c 00 00 00       	push   $0x1c
  4011f9:	f2 e9 21 fe ff ff    	bnd jmp 401020 <.plt>
  4011ff:	90                   	nop
  401200:	f3 0f 1e fa          	endbr64 
  401204:	68 1d 00 00 00       	push   $0x1d
  401209:	f2 e9 11 fe ff ff    	bnd jmp 401020 <.plt>
  40120f:	90                   	nop
  401210:	f3 0f 1e fa          	endbr64 
  401214:	68 1e 00 00 00       	push   $0x1e
  401219:	f2 e9 01 fe ff ff    	bnd jmp 401020 <.plt>
  40121f:	90                   	nop
  401220:	f3 0f 1e fa          	endbr64 
  401224:	68 1f 00 00 00       	push   $0x1f
  401229:	f2 e9 f1 fd ff ff    	bnd jmp 401020 <.plt>
  40122f:	90                   	nop
  401230:	f3 0f 1e fa          	endbr64 
  401234:	68 20 00 00 00       	push   $0x20
  401239:	f2 e9 e1 fd ff ff    	bnd jmp 401020 <.plt>
  40123f:	90                   	nop
  401240:	f3 0f 1e fa          	endbr64 
  401244:	68 21 00 00 00       	push   $0x21
  401249:	f2 e9 d1 fd ff ff    	bnd jmp 401020 <.plt>
  40124f:	90                   	nop

Disassembly of section .plt.sec:

0000000000401250 <strcasecmp@plt>:
  401250:	f3 0f 1e fa          	endbr64 
  401254:	f2 ff 25 bd 5d 00 00 	bnd jmp *0x5dbd(%rip)        # 407018 <strcasecmp@GLIBC_2.2.5>
  40125b:	0f 1f 44 00 00       	nopl   0x0(%rax,%rax,1)

0000000000401260 <__errno_location@plt>:
  401260:	f3 0f 1e fa          	endbr64 
  401264:	f2 ff 25 b5 5d 00 00 	bnd jmp *0x5db5(%rip)        # 407020 <__errno_location@GLIBC_2.2.5>
  40126b:	0f 1f 44 00 00       	nopl   0x0(%rax,%rax,1)

0000000000401270 <srandom@plt>:
  401270:	f3 0f 1e fa          	endbr64 
  401274:	f2 ff 25 ad 5d 00 00 	bnd jmp *0x5dad(%rip)        # 407028 <srandom@GLIBC_2.2.5>
  40127b:	0f 1f 44 00 00       	nopl   0x0(%rax,%rax,1)

0000000000401280 <strncpy@plt>:
  401280:	f3 0f 1e fa          	endbr64 
  401284:	f2 ff 25 a5 5d 00 00 	bnd jmp *0x5da5(%rip)        # 407030 <strncpy@GLIBC_2.2.5>
  40128b:	0f 1f 44 00 00       	nopl   0x0(%rax,%rax,1)

0000000000401290 <strncmp@plt>:
  401290:	f3 0f 1e fa          	endbr64 
  401294:	f2 ff 25 9d 5d 00 00 	bnd jmp *0x5d9d(%rip)        # 407038 <strncmp@GLIBC_2.2.5>
  40129b:	0f 1f 44 00 00       	nopl   0x0(%rax,%rax,1)

00000000004012a0 <strcpy@plt>:
  4012a0:	f3 0f 1e fa          	endbr64 
  4012a4:	f2 ff 25 95 5d 00 00 	bnd jmp *0x5d95(%rip)        # 407040 <strcpy@GLIBC_2.2.5>
  4012ab:	0f 1f 44 00 00       	nopl   0x0(%rax,%rax,1)

00000000004012b0 <puts@plt>:
  4012b0:	f3 0f 1e fa          	endbr64 
  4012b4:	f2 ff 25 8d 5d 00 00 	bnd jmp *0x5d8d(%rip)        # 407048 <puts@GLIBC_2.2.5>
  4012bb:	0f 1f 44 00 00       	nopl   0x0(%rax,%rax,1)

00000000004012c0 <write@plt>:
  4012c0:	f3 0f 1e fa          	endbr64 
  4012c4:	f2 ff 25 85 5d 00 00 	bnd jmp *0x5d85(%rip)        # 407050 <write@GLIBC_2.2.5>
  4012cb:	0f 1f 44 00 00       	nopl   0x0(%rax,%rax,1)

00000000004012d0 <mmap@plt>:
  4012d0:	f3 0f 1e fa          	endbr64 
  4012d4:	f2 ff 25 7d 5d 00 00 	bnd jmp *0x5d7d(%rip)        # 407058 <mmap@GLIBC_2.2.5>
  4012db:	0f 1f 44 00 00       	nopl   0x0(%rax,%rax,1)

00000000004012e0 <memset@plt>:
  4012e0:	f3 0f 1e fa          	endbr64 
  4012e4:	f2 ff 25 75 5d 00 00 	bnd jmp *0x5d75(%rip)        # 407060 <memset@GLIBC_2.2.5>
  4012eb:	0f 1f 44 00 00       	nopl   0x0(%rax,%rax,1)

00000000004012f0 <alarm@plt>:
  4012f0:	f3 0f 1e fa          	endbr64 
  4012f4:	f2 ff 25 6d 5d 00 00 	bnd jmp *0x5d6d(%rip)        # 407068 <alarm@GLIBC_2.2.5>
  4012fb:	0f 1f 44 00 00       	nopl   0x0(%rax,%rax,1)

0000000000401300 <close@plt>:
  401300:	f3 0f 1e fa          	endbr64 
  401304:	f2 ff 25 65 5d 00 00 	bnd jmp *0x5d65(%rip)        # 407070 <close@GLIBC_2.2.5>
  40130b:	0f 1f 44 00 00       	nopl   0x0(%rax,%rax,1)

0000000000401310 <read@plt>:
  401310:	f3 0f 1e fa          	endbr64 
  401314:	f2 ff 25 5d 5d 00 00 	bnd jmp *0x5d5d(%rip)        # 407078 <read@GLIBC_2.2.5>
  40131b:	0f 1f 44 00 00       	nopl   0x0(%rax,%rax,1)

0000000000401320 <strcmp@plt>:
  401320:	f3 0f 1e fa          	endbr64 
  401324:	f2 ff 25 55 5d 00 00 	bnd jmp *0x5d55(%rip)        # 407080 <strcmp@GLIBC_2.2.5>
  40132b:	0f 1f 44 00 00       	nopl   0x0(%rax,%rax,1)

0000000000401330 <signal@plt>:
  401330:	f3 0f 1e fa          	endbr64 
  401334:	f2 ff 25 4d 5d 00 00 	bnd jmp *0x5d4d(%rip)        # 407088 <signal@GLIBC_2.2.5>
  40133b:	0f 1f 44 00 00       	nopl   0x0(%rax,%rax,1)

0000000000401340 <gethostbyname@plt>:
  401340:	f3 0f 1e fa          	endbr64 
  401344:	f2 ff 25 45 5d 00 00 	bnd jmp *0x5d45(%rip)        # 407090 <gethostbyname@GLIBC_2.2.5>
  40134b:	0f 1f 44 00 00       	nopl   0x0(%rax,%rax,1)

0000000000401350 <__memmove_chk@plt>:
  401350:	f3 0f 1e fa          	endbr64 
  401354:	f2 ff 25 3d 5d 00 00 	bnd jmp *0x5d3d(%rip)        # 407098 <__memmove_chk@GLIBC_2.3.4>
  40135b:	0f 1f 44 00 00       	nopl   0x0(%rax,%rax,1)

0000000000401360 <strtol@plt>:
  401360:	f3 0f 1e fa          	endbr64 
  401364:	f2 ff 25 35 5d 00 00 	bnd jmp *0x5d35(%rip)        # 4070a0 <strtol@GLIBC_2.2.5>
  40136b:	0f 1f 44 00 00       	nopl   0x0(%rax,%rax,1)

0000000000401370 <memcpy@plt>:
  401370:	f3 0f 1e fa          	endbr64 
  401374:	f2 ff 25 2d 5d 00 00 	bnd jmp *0x5d2d(%rip)        # 4070a8 <memcpy@GLIBC_2.14>
  40137b:	0f 1f 44 00 00       	nopl   0x0(%rax,%rax,1)

0000000000401380 <time@plt>:
  401380:	f3 0f 1e fa          	endbr64 
  401384:	f2 ff 25 25 5d 00 00 	bnd jmp *0x5d25(%rip)        # 4070b0 <time@GLIBC_2.2.5>
  40138b:	0f 1f 44 00 00       	nopl   0x0(%rax,%rax,1)

0000000000401390 <random@plt>:
  401390:	f3 0f 1e fa          	endbr64 
  401394:	f2 ff 25 1d 5d 00 00 	bnd jmp *0x5d1d(%rip)        # 4070b8 <random@GLIBC_2.2.5>
  40139b:	0f 1f 44 00 00       	nopl   0x0(%rax,%rax,1)

00000000004013a0 <__isoc99_sscanf@plt>:
  4013a0:	f3 0f 1e fa          	endbr64 
  4013a4:	f2 ff 25 15 5d 00 00 	bnd jmp *0x5d15(%rip)        # 4070c0 <__isoc99_sscanf@GLIBC_2.7>
  4013ab:	0f 1f 44 00 00       	nopl   0x0(%rax,%rax,1)

00000000004013b0 <munmap@plt>:
  4013b0:	f3 0f 1e fa          	endbr64 
  4013b4:	f2 ff 25 0d 5d 00 00 	bnd jmp *0x5d0d(%rip)        # 4070c8 <munmap@GLIBC_2.2.5>
  4013bb:	0f 1f 44 00 00       	nopl   0x0(%rax,%rax,1)

00000000004013c0 <__printf_chk@plt>:
  4013c0:	f3 0f 1e fa          	endbr64 
  4013c4:	f2 ff 25 05 5d 00 00 	bnd jmp *0x5d05(%rip)        # 4070d0 <__printf_chk@GLIBC_2.3.4>
  4013cb:	0f 1f 44 00 00       	nopl   0x0(%rax,%rax,1)

00000000004013d0 <fopen@plt>:
  4013d0:	f3 0f 1e fa          	endbr64 
  4013d4:	f2 ff 25 fd 5c 00 00 	bnd jmp *0x5cfd(%rip)        # 4070d8 <fopen@GLIBC_2.2.5>
  4013db:	0f 1f 44 00 00       	nopl   0x0(%rax,%rax,1)

00000000004013e0 <getopt@plt>:
  4013e0:	f3 0f 1e fa          	endbr64 
  4013e4:	f2 ff 25 f5 5c 00 00 	bnd jmp *0x5cf5(%rip)        # 4070e0 <getopt@GLIBC_2.2.5>
  4013eb:	0f 1f 44 00 00       	nopl   0x0(%rax,%rax,1)

00000000004013f0 <strtoul@plt>:
  4013f0:	f3 0f 1e fa          	endbr64 
  4013f4:	f2 ff 25 ed 5c 00 00 	bnd jmp *0x5ced(%rip)        # 4070e8 <strtoul@GLIBC_2.2.5>
  4013fb:	0f 1f 44 00 00       	nopl   0x0(%rax,%rax,1)

0000000000401400 <gethostname@plt>:
  401400:	f3 0f 1e fa          	endbr64 
  401404:	f2 ff 25 e5 5c 00 00 	bnd jmp *0x5ce5(%rip)        # 4070f0 <gethostname@GLIBC_2.2.5>
  40140b:	0f 1f 44 00 00       	nopl   0x0(%rax,%rax,1)

0000000000401410 <exit@plt>:
  401410:	f3 0f 1e fa          	endbr64 
  401414:	f2 ff 25 dd 5c 00 00 	bnd jmp *0x5cdd(%rip)        # 4070f8 <exit@GLIBC_2.2.5>
  40141b:	0f 1f 44 00 00       	nopl   0x0(%rax,%rax,1)

0000000000401420 <connect@plt>:
  401420:	f3 0f 1e fa          	endbr64 
  401424:	f2 ff 25 d5 5c 00 00 	bnd jmp *0x5cd5(%rip)        # 407100 <connect@GLIBC_2.2.5>
  40142b:	0f 1f 44 00 00       	nopl   0x0(%rax,%rax,1)

0000000000401430 <__fprintf_chk@plt>:
  401430:	f3 0f 1e fa          	endbr64 
  401434:	f2 ff 25 cd 5c 00 00 	bnd jmp *0x5ccd(%rip)        # 407108 <__fprintf_chk@GLIBC_2.3.4>
  40143b:	0f 1f 44 00 00       	nopl   0x0(%rax,%rax,1)

0000000000401440 <getc@plt>:
  401440:	f3 0f 1e fa          	endbr64 
  401444:	f2 ff 25 c5 5c 00 00 	bnd jmp *0x5cc5(%rip)        # 407110 <getc@GLIBC_2.2.5>
  40144b:	0f 1f 44 00 00       	nopl   0x0(%rax,%rax,1)

0000000000401450 <__sprintf_chk@plt>:
  401450:	f3 0f 1e fa          	endbr64 
  401454:	f2 ff 25 bd 5c 00 00 	bnd jmp *0x5cbd(%rip)        # 407118 <__sprintf_chk@GLIBC_2.3.4>
  40145b:	0f 1f 44 00 00       	nopl   0x0(%rax,%rax,1)

0000000000401460 <socket@plt>:
  401460:	f3 0f 1e fa          	endbr64 
  401464:	f2 ff 25 b5 5c 00 00 	bnd jmp *0x5cb5(%rip)        # 407120 <socket@GLIBC_2.2.5>
  40146b:	0f 1f 44 00 00       	nopl   0x0(%rax,%rax,1)

Disassembly of section .text:

0000000000401470 <_start>:
  401470:	f3 0f 1e fa          	endbr64 
  401474:	31 ed                	xor    %ebp,%ebp
  401476:	49 89 d1             	mov    %rdx,%r9
  401479:	5e                   	pop    %rsi
  40147a:	48 89 e2             	mov    %rsp,%rdx
  40147d:	48 83 e4 f0          	and    $0xfffffffffffffff0,%rsp
  401481:	50                   	push   %rax
  401482:	54                   	push   %rsp
  401483:	49 c7 c0 70 38 40 00 	mov    $0x403870,%r8
  40148a:	48 c7 c1 00 38 40 00 	mov    $0x403800,%rcx
  401491:	48 c7 c7 99 17 40 00 	mov    $0x401799,%rdi
  401498:	ff 15 52 5b 00 00    	call   *0x5b52(%rip)        # 406ff0 <__libc_start_main@GLIBC_2.2.5>
  40149e:	f4                   	hlt    
  40149f:	90                   	nop

00000000004014a0 <_dl_relocate_static_pie>:
  4014a0:	f3 0f 1e fa          	endbr64 
  4014a4:	c3                   	ret    
  4014a5:	66 2e 0f 1f 84 00 00 	cs nopw 0x0(%rax,%rax,1)
  4014ac:	00 00 00 
  4014af:	90                   	nop

00000000004014b0 <deregister_tm_clones>:
  4014b0:	b8 b0 74 40 00       	mov    $0x4074b0,%eax
  4014b5:	48 3d b0 74 40 00    	cmp    $0x4074b0,%rax
  4014bb:	74 13                	je     4014d0 <deregister_tm_clones+0x20>
  4014bd:	b8 00 00 00 00       	mov    $0x0,%eax
  4014c2:	48 85 c0             	test   %rax,%rax
  4014c5:	74 09                	je     4014d0 <deregister_tm_clones+0x20>
  4014c7:	bf b0 74 40 00       	mov    $0x4074b0,%edi
  4014cc:	ff e0                	jmp    *%rax
  4014ce:	66 90                	xchg   %ax,%ax
  4014d0:	c3                   	ret    
  4014d1:	66 66 2e 0f 1f 84 00 	data16 cs nopw 0x0(%rax,%rax,1)
  4014d8:	00 00 00 00 
  4014dc:	0f 1f 40 00          	nopl   0x0(%rax)

00000000004014e0 <register_tm_clones>:
  4014e0:	be b0 74 40 00       	mov    $0x4074b0,%esi
  4014e5:	48 81 ee b0 74 40 00 	sub    $0x4074b0,%rsi
  4014ec:	48 89 f0             	mov    %rsi,%rax
  4014ef:	48 c1 ee 3f          	shr    $0x3f,%rsi
  4014f3:	48 c1 f8 03          	sar    $0x3,%rax
  4014f7:	48 01 c6             	add    %rax,%rsi
  4014fa:	48 d1 fe             	sar    %rsi
  4014fd:	74 11                	je     401510 <register_tm_clones+0x30>
  4014ff:	b8 00 00 00 00       	mov    $0x0,%eax
  401504:	48 85 c0             	test   %rax,%rax
  401507:	74 07                	je     401510 <register_tm_clones+0x30>
  401509:	bf b0 74 40 00       	mov    $0x4074b0,%edi
  40150e:	ff e0                	jmp    *%rax
  401510:	c3                   	ret    
  401511:	66 66 2e 0f 1f 84 00 	data16 cs nopw 0x0(%rax,%rax,1)
  401518:	00 00 00 00 
  40151c:	0f 1f 40 00          	nopl   0x0(%rax)

0000000000401520 <__do_global_dtors_aux>:
  401520:	f3 0f 1e fa          	endbr64 
  401524:	80 3d bd 5f 00 00 00 	cmpb   $0x0,0x5fbd(%rip)        # 4074e8 <completed.8060>
  40152b:	75 13                	jne    401540 <__do_global_dtors_aux+0x20>
  40152d:	55                   	push   %rbp
  40152e:	48 89 e5             	mov    %rsp,%rbp
  401531:	e8 7a ff ff ff       	call   4014b0 <deregister_tm_clones>
  401536:	c6 05 ab 5f 00 00 01 	movb   $0x1,0x5fab(%rip)        # 4074e8 <completed.8060>
  40153d:	5d                   	pop    %rbp
  40153e:	c3                   	ret    
  40153f:	90                   	nop
  401540:	c3                   	ret    
  401541:	66 66 2e 0f 1f 84 00 	data16 cs nopw 0x0(%rax,%rax,1)
  401548:	00 00 00 00 
  40154c:	0f 1f 40 00          	nopl   0x0(%rax)

0000000000401550 <frame_dummy>:
  401550:	f3 0f 1e fa          	endbr64 
  401554:	eb 8a                	jmp    4014e0 <register_tm_clones>

0000000000401556 <usage>:
  401556:	50                   	push   %rax
  401557:	58                   	pop    %rax
  401558:	48 83 ec 08          	sub    $0x8,%rsp
  40155c:	48 89 fa             	mov    %rdi,%rdx
  40155f:	83 3d c2 5f 00 00 00 	cmpl   $0x0,0x5fc2(%rip)        # 407528 <is_checker>
  401566:	74 50                	je     4015b8 <usage+0x62>
  401568:	48 8d 35 99 2a 00 00 	lea    0x2a99(%rip),%rsi        # 404008 <_IO_stdin_used+0x8>
  40156f:	bf 01 00 00 00       	mov    $0x1,%edi
  401574:	b8 00 00 00 00       	mov    $0x0,%eax
  401579:	e8 42 fe ff ff       	call   4013c0 <__printf_chk@plt>
  40157e:	48 8d 3d bb 2a 00 00 	lea    0x2abb(%rip),%rdi        # 404040 <_IO_stdin_used+0x40>
  401585:	e8 26 fd ff ff       	call   4012b0 <puts@plt>
  40158a:	48 8d 3d 3f 2c 00 00 	lea    0x2c3f(%rip),%rdi        # 4041d0 <_IO_stdin_used+0x1d0>
  401591:	e8 1a fd ff ff       	call   4012b0 <puts@plt>
  401596:	48 8d 3d cb 2a 00 00 	lea    0x2acb(%rip),%rdi        # 404068 <_IO_stdin_used+0x68>
  40159d:	e8 0e fd ff ff       	call   4012b0 <puts@plt>
  4015a2:	48 8d 3d 41 2c 00 00 	lea    0x2c41(%rip),%rdi        # 4041ea <_IO_stdin_used+0x1ea>
  4015a9:	e8 02 fd ff ff       	call   4012b0 <puts@plt>
  4015ae:	bf 00 00 00 00       	mov    $0x0,%edi
  4015b3:	e8 58 fe ff ff       	call   401410 <exit@plt>
  4015b8:	48 8d 35 47 2c 00 00 	lea    0x2c47(%rip),%rsi        # 404206 <_IO_stdin_used+0x206>
  4015bf:	bf 01 00 00 00       	mov    $0x1,%edi
  4015c4:	b8 00 00 00 00       	mov    $0x0,%eax
  4015c9:	e8 f2 fd ff ff       	call   4013c0 <__printf_chk@plt>
  4015ce:	48 8d 3d bb 2a 00 00 	lea    0x2abb(%rip),%rdi        # 404090 <_IO_stdin_used+0x90>
  4015d5:	e8 d6 fc ff ff       	call   4012b0 <puts@plt>
  4015da:	48 8d 3d d7 2a 00 00 	lea    0x2ad7(%rip),%rdi        # 4040b8 <_IO_stdin_used+0xb8>
  4015e1:	e8 ca fc ff ff       	call   4012b0 <puts@plt>
  4015e6:	48 8d 3d 37 2c 00 00 	lea    0x2c37(%rip),%rdi        # 404224 <_IO_stdin_used+0x224>
  4015ed:	e8 be fc ff ff       	call   4012b0 <puts@plt>
  4015f2:	eb ba                	jmp    4015ae <usage+0x58>

00000000004015f4 <initialize_target>:
  4015f4:	55                   	push   %rbp
  4015f5:	53                   	push   %rbx
  4015f6:	48 81 ec 00 10 00 00 	sub    $0x1000,%rsp
  4015fd:	48 83 0c 24 00       	orq    $0x0,(%rsp)
  401602:	48 81 ec 00 10 00 00 	sub    $0x1000,%rsp
  401609:	48 83 0c 24 00       	orq    $0x0,(%rsp)
  40160e:	48 81 ec 18 01 00 00 	sub    $0x118,%rsp
  401615:	89 f5                	mov    %esi,%ebp
  401617:	64 48 8b 04 25 28 00 	mov    %fs:0x28,%rax
  40161e:	00 00 
  401620:	48 89 84 24 08 21 00 	mov    %rax,0x2108(%rsp)
  401627:	00 
  401628:	31 c0                	xor    %eax,%eax
  40162a:	89 3d e8 5e 00 00    	mov    %edi,0x5ee8(%rip)        # 407518 <check_level>
  401630:	8b 3d 1a 5b 00 00    	mov    0x5b1a(%rip),%edi        # 407150 <target_id>
  401636:	e8 9b 21 00 00       	call   4037d6 <gencookie>
  40163b:	89 c7                	mov    %eax,%edi
  40163d:	89 05 e1 5e 00 00    	mov    %eax,0x5ee1(%rip)        # 407524 <cookie>
  401643:	e8 8e 21 00 00       	call   4037d6 <gencookie>
  401648:	89 05 d2 5e 00 00    	mov    %eax,0x5ed2(%rip)        # 407520 <authkey>
  40164e:	8b 05 fc 5a 00 00    	mov    0x5afc(%rip),%eax        # 407150 <target_id>
  401654:	8d 78 01             	lea    0x1(%rax),%edi
  401657:	e8 14 fc ff ff       	call   401270 <srandom@plt>
  40165c:	e8 2f fd ff ff       	call   401390 <random@plt>
  401661:	48 89 c7             	mov    %rax,%rdi
  401664:	e8 9b 03 00 00       	call   401a04 <scramble>
  401669:	89 c3                	mov    %eax,%ebx
  40166b:	85 ed                	test   %ebp,%ebp
  40166d:	75 54                	jne    4016c3 <initialize_target+0xcf>
  40166f:	b8 00 00 00 00       	mov    $0x0,%eax
  401674:	01 d8                	add    %ebx,%eax
  401676:	0f b7 c0             	movzwl %ax,%eax
  401679:	8d 04 c5 00 01 00 00 	lea    0x100(,%rax,8),%eax
  401680:	89 c0                	mov    %eax,%eax
  401682:	48 89 05 1f 5e 00 00 	mov    %rax,0x5e1f(%rip)        # 4074a8 <buf_offset>
  401689:	c6 05 b8 6a 00 00 63 	movb   $0x63,0x6ab8(%rip)        # 408148 <target_prefix>
  401690:	83 3d 09 5e 00 00 00 	cmpl   $0x0,0x5e09(%rip)        # 4074a0 <notify>
  401697:	74 09                	je     4016a2 <initialize_target+0xae>
  401699:	83 3d 88 5e 00 00 00 	cmpl   $0x0,0x5e88(%rip)        # 407528 <is_checker>
  4016a0:	74 3a                	je     4016dc <initialize_target+0xe8>
  4016a2:	48 8b 84 24 08 21 00 	mov    0x2108(%rsp),%rax
  4016a9:	00 
  4016aa:	64 48 33 04 25 28 00 	xor    %fs:0x28,%rax
  4016b1:	00 00 
  4016b3:	0f 85 db 00 00 00    	jne    401794 <initialize_target+0x1a0>
  4016b9:	48 81 c4 18 21 00 00 	add    $0x2118,%rsp
  4016c0:	5b                   	pop    %rbx
  4016c1:	5d                   	pop    %rbp
  4016c2:	c3                   	ret    
  4016c3:	bf 00 00 00 00       	mov    $0x0,%edi
  4016c8:	e8 b3 fc ff ff       	call   401380 <time@plt>
  4016cd:	48 89 c7             	mov    %rax,%rdi
  4016d0:	e8 9b fb ff ff       	call   401270 <srandom@plt>
  4016d5:	e8 b6 fc ff ff       	call   401390 <random@plt>
  4016da:	eb 98                	jmp    401674 <initialize_target+0x80>
  4016dc:	48 89 e7             	mov    %rsp,%rdi
  4016df:	be 00 01 00 00       	mov    $0x100,%esi
  4016e4:	e8 17 fd ff ff       	call   401400 <gethostname@plt>
  4016e9:	89 c5                	mov    %eax,%ebp
  4016eb:	85 c0                	test   %eax,%eax
  4016ed:	75 26                	jne    401715 <initialize_target+0x121>
  4016ef:	89 c3                	mov    %eax,%ebx
  4016f1:	48 63 c3             	movslq %ebx,%rax
  4016f4:	48 8d 15 85 5a 00 00 	lea    0x5a85(%rip),%rdx        # 407180 <host_table>
  4016fb:	48 8b 3c c2          	mov    (%rdx,%rax,8),%rdi
  4016ff:	48 85 ff             	test   %rdi,%rdi
  401702:	74 2c                	je     401730 <initialize_target+0x13c>
  401704:	48 89 e6             	mov    %rsp,%rsi
  401707:	e8 44 fb ff ff       	call   401250 <strcasecmp@plt>
  40170c:	85 c0                	test   %eax,%eax
  40170e:	74 1b                	je     40172b <initialize_target+0x137>
  401710:	83 c3 01             	add    $0x1,%ebx
  401713:	eb dc                	jmp    4016f1 <initialize_target+0xfd>
  401715:	48 8d 3d cc 29 00 00 	lea    0x29cc(%rip),%rdi        # 4040e8 <_IO_stdin_used+0xe8>
  40171c:	e8 8f fb ff ff       	call   4012b0 <puts@plt>
  401721:	bf 08 00 00 00       	mov    $0x8,%edi
  401726:	e8 e5 fc ff ff       	call   401410 <exit@plt>
  40172b:	bd 01 00 00 00       	mov    $0x1,%ebp
  401730:	85 ed                	test   %ebp,%ebp
  401732:	74 3d                	je     401771 <initialize_target+0x17d>
  401734:	48 8d bc 24 00 01 00 	lea    0x100(%rsp),%rdi
  40173b:	00 
  40173c:	e8 da 1d 00 00       	call   40351b <init_driver>
  401741:	85 c0                	test   %eax,%eax
  401743:	0f 89 59 ff ff ff    	jns    4016a2 <initialize_target+0xae>
  401749:	48 8d 94 24 00 01 00 	lea    0x100(%rsp),%rdx
  401750:	00 
  401751:	48 8d 35 08 2a 00 00 	lea    0x2a08(%rip),%rsi        # 404160 <_IO_stdin_used+0x160>
  401758:	bf 01 00 00 00       	mov    $0x1,%edi
  40175d:	b8 00 00 00 00       	mov    $0x0,%eax
  401762:	e8 59 fc ff ff       	call   4013c0 <__printf_chk@plt>
  401767:	bf 08 00 00 00       	mov    $0x8,%edi
  40176c:	e8 9f fc ff ff       	call   401410 <exit@plt>
  401771:	48 89 e2             	mov    %rsp,%rdx
  401774:	48 8d 35 a5 29 00 00 	lea    0x29a5(%rip),%rsi        # 404120 <_IO_stdin_used+0x120>
  40177b:	bf 01 00 00 00       	mov    $0x1,%edi
  401780:	b8 00 00 00 00       	mov    $0x0,%eax
  401785:	e8 36 fc ff ff       	call   4013c0 <__printf_chk@plt>
  40178a:	bf 08 00 00 00       	mov    $0x8,%edi
  40178f:	e8 7c fc ff ff       	call   401410 <exit@plt>
  401794:	e8 a4 10 00 00       	call   40283d <__stack_chk_fail>

0000000000401799 <main>:
  401799:	f3 0f 1e fa          	endbr64 
  40179d:	41 56                	push   %r14
  40179f:	41 55                	push   %r13
  4017a1:	41 54                	push   %r12
  4017a3:	55                   	push   %rbp
  4017a4:	53                   	push   %rbx
  4017a5:	48 83 ec 60          	sub    $0x60,%rsp
  4017a9:	89 fd                	mov    %edi,%ebp
  4017ab:	48 89 f3             	mov    %rsi,%rbx
  4017ae:	64 48 8b 04 25 28 00 	mov    %fs:0x28,%rax
  4017b5:	00 00 
  4017b7:	48 89 44 24 58       	mov    %rax,0x58(%rsp)
  4017bc:	31 c0                	xor    %eax,%eax
  4017be:	48 b8 53 70 69 72 69 	movabs $0x6465746972697053,%rax
  4017c5:	74 65 64 
  4017c8:	48 89 04 24          	mov    %rax,(%rsp)
  4017cc:	c7 44 24 08 41 77 61 	movl   $0x79617741,0x8(%rsp)
  4017d3:	79 
  4017d4:	66 c7 44 24 0c 43 4e 	movw   $0x4e43,0xc(%rsp)
  4017db:	c6 44 24 0e 00       	movb   $0x0,0xe(%rsp)
  4017e0:	48 c7 c6 2c 27 40 00 	mov    $0x40272c,%rsi
  4017e7:	bf 0b 00 00 00       	mov    $0xb,%edi
  4017ec:	e8 3f fb ff ff       	call   401330 <signal@plt>
  4017f1:	48 c7 c6 d2 26 40 00 	mov    $0x4026d2,%rsi
  4017f8:	bf 07 00 00 00       	mov    $0x7,%edi
  4017fd:	e8 2e fb ff ff       	call   401330 <signal@plt>
  401802:	48 c7 c6 86 27 40 00 	mov    $0x402786,%rsi
  401809:	bf 04 00 00 00       	mov    $0x4,%edi
  40180e:	e8 1d fb ff ff       	call   401330 <signal@plt>
  401813:	83 3d 0e 5d 00 00 00 	cmpl   $0x0,0x5d0e(%rip)        # 407528 <is_checker>
  40181a:	75 26                	jne    401842 <main+0xa9>
  40181c:	4c 8d 25 24 2a 00 00 	lea    0x2a24(%rip),%r12        # 404247 <_IO_stdin_used+0x247>
  401823:	48 8b 05 96 5c 00 00 	mov    0x5c96(%rip),%rax        # 4074c0 <stdin@GLIBC_2.2.5>
  40182a:	48 89 05 df 5c 00 00 	mov    %rax,0x5cdf(%rip)        # 407510 <infile>
  401831:	41 bd 00 00 00 00    	mov    $0x0,%r13d
  401837:	41 be 00 00 00 00    	mov    $0x0,%r14d
  40183d:	e9 8d 00 00 00       	jmp    4018cf <main+0x136>
  401842:	48 c7 c6 e0 27 40 00 	mov    $0x4027e0,%rsi
  401849:	bf 0e 00 00 00       	mov    $0xe,%edi
  40184e:	e8 dd fa ff ff       	call   401330 <signal@plt>
  401853:	bf 02 00 00 00       	mov    $0x2,%edi
  401858:	e8 93 fa ff ff       	call   4012f0 <alarm@plt>
  40185d:	4c 8d 25 d9 29 00 00 	lea    0x29d9(%rip),%r12        # 40423d <_IO_stdin_used+0x23d>
  401864:	eb bd                	jmp    401823 <main+0x8a>
  401866:	48 8b 3b             	mov    (%rbx),%rdi
  401869:	e8 e8 fc ff ff       	call   401556 <usage>
  40186e:	48 8d 35 9f 2a 00 00 	lea    0x2a9f(%rip),%rsi        # 404314 <_IO_stdin_used+0x314>
  401875:	48 8b 3d 4c 5c 00 00 	mov    0x5c4c(%rip),%rdi        # 4074c8 <optarg@GLIBC_2.2.5>
  40187c:	e8 4f fb ff ff       	call   4013d0 <fopen@plt>
  401881:	48 89 05 88 5c 00 00 	mov    %rax,0x5c88(%rip)        # 407510 <infile>
  401888:	48 85 c0             	test   %rax,%rax
  40188b:	75 42                	jne    4018cf <main+0x136>
  40188d:	48 8b 0d 34 5c 00 00 	mov    0x5c34(%rip),%rcx        # 4074c8 <optarg@GLIBC_2.2.5>
  401894:	48 8d 15 b1 29 00 00 	lea    0x29b1(%rip),%rdx        # 40424c <_IO_stdin_used+0x24c>
  40189b:	be 01 00 00 00       	mov    $0x1,%esi
  4018a0:	48 8b 3d 39 5c 00 00 	mov    0x5c39(%rip),%rdi        # 4074e0 <stderr@GLIBC_2.2.5>
  4018a7:	e8 84 fb ff ff       	call   401430 <__fprintf_chk@plt>
  4018ac:	b8 01 00 00 00       	mov    $0x1,%eax
  4018b1:	e9 2c 01 00 00       	jmp    4019e2 <main+0x249>
  4018b6:	ba 10 00 00 00       	mov    $0x10,%edx
  4018bb:	be 00 00 00 00       	mov    $0x0,%esi
  4018c0:	48 8b 3d 01 5c 00 00 	mov    0x5c01(%rip),%rdi        # 4074c8 <optarg@GLIBC_2.2.5>
  4018c7:	e8 24 fb ff ff       	call   4013f0 <strtoul@plt>
  4018cc:	41 89 c6             	mov    %eax,%r14d
  4018cf:	4c 89 e2             	mov    %r12,%rdx
  4018d2:	48 89 de             	mov    %rbx,%rsi
  4018d5:	89 ef                	mov    %ebp,%edi
  4018d7:	e8 04 fb ff ff       	call   4013e0 <getopt@plt>
  4018dc:	3c ff                	cmp    $0xff,%al
  4018de:	74 7b                	je     40195b <main+0x1c2>
  4018e0:	0f be c8             	movsbl %al,%ecx
  4018e3:	83 e8 61             	sub    $0x61,%eax
  4018e6:	3c 14                	cmp    $0x14,%al
  4018e8:	77 51                	ja     40193b <main+0x1a2>
  4018ea:	0f b6 c0             	movzbl %al,%eax
  4018ed:	48 8d 15 98 29 00 00 	lea    0x2998(%rip),%rdx        # 40428c <_IO_stdin_used+0x28c>
  4018f4:	48 63 04 82          	movslq (%rdx,%rax,4),%rax
  4018f8:	48 01 d0             	add    %rdx,%rax
  4018fb:	3e ff e0             	notrack jmp *%rax
  4018fe:	ba 0a 00 00 00       	mov    $0xa,%edx
  401903:	be 00 00 00 00       	mov    $0x0,%esi
  401908:	48 8b 3d b9 5b 00 00 	mov    0x5bb9(%rip),%rdi        # 4074c8 <optarg@GLIBC_2.2.5>
  40190f:	e8 4c fa ff ff       	call   401360 <strtol@plt>
  401914:	41 89 c5             	mov    %eax,%r13d
  401917:	eb b6                	jmp    4018cf <main+0x136>
  401919:	c7 05 7d 5b 00 00 00 	movl   $0x0,0x5b7d(%rip)        # 4074a0 <notify>
  401920:	00 00 00 
  401923:	eb aa                	jmp    4018cf <main+0x136>
  401925:	48 89 e7             	mov    %rsp,%rdi
  401928:	ba 50 00 00 00       	mov    $0x50,%edx
  40192d:	48 8b 35 94 5b 00 00 	mov    0x5b94(%rip),%rsi        # 4074c8 <optarg@GLIBC_2.2.5>
  401934:	e8 47 f9 ff ff       	call   401280 <strncpy@plt>
  401939:	eb 94                	jmp    4018cf <main+0x136>
  40193b:	89 ca                	mov    %ecx,%edx
  40193d:	48 8d 35 25 29 00 00 	lea    0x2925(%rip),%rsi        # 404269 <_IO_stdin_used+0x269>
  401944:	bf 01 00 00 00       	mov    $0x1,%edi
  401949:	b8 00 00 00 00       	mov    $0x0,%eax
  40194e:	e8 6d fa ff ff       	call   4013c0 <__printf_chk@plt>
  401953:	48 8b 3b             	mov    (%rbx),%rdi
  401956:	e8 fb fb ff ff       	call   401556 <usage>
  40195b:	be 00 00 00 00       	mov    $0x0,%esi
  401960:	44 89 ef             	mov    %r13d,%edi
  401963:	e8 8c fc ff ff       	call   4015f4 <initialize_target>
  401968:	83 3d b9 5b 00 00 00 	cmpl   $0x0,0x5bb9(%rip)        # 407528 <is_checker>
  40196f:	74 3f                	je     4019b0 <main+0x217>
  401971:	44 39 35 a8 5b 00 00 	cmp    %r14d,0x5ba8(%rip)        # 407520 <authkey>
  401978:	75 13                	jne    40198d <main+0x1f4>
  40197a:	48 89 e7             	mov    %rsp,%rdi
  40197d:	48 8b 35 dc 57 00 00 	mov    0x57dc(%rip),%rsi        # 407160 <user_id>
  401984:	e8 97 f9 ff ff       	call   401320 <strcmp@plt>
  401989:	85 c0                	test   %eax,%eax
  40198b:	74 23                	je     4019b0 <main+0x217>
  40198d:	44 89 f2             	mov    %r14d,%edx
  401990:	48 8d 35 f1 27 00 00 	lea    0x27f1(%rip),%rsi        # 404188 <_IO_stdin_used+0x188>
  401997:	bf 01 00 00 00       	mov    $0x1,%edi
  40199c:	b8 00 00 00 00       	mov    $0x0,%eax
  4019a1:	e8 1a fa ff ff       	call   4013c0 <__printf_chk@plt>
  4019a6:	b8 00 00 00 00       	mov    $0x0,%eax
  4019ab:	e8 6b 09 00 00       	call   40231b <check_fail>
  4019b0:	8b 15 6e 5b 00 00    	mov    0x5b6e(%rip),%edx        # 407524 <cookie>
  4019b6:	48 8d 35 bf 28 00 00 	lea    0x28bf(%rip),%rsi        # 40427c <_IO_stdin_used+0x27c>
  4019bd:	bf 01 00 00 00       	mov    $0x1,%edi
  4019c2:	b8 00 00 00 00       	mov    $0x0,%eax
  4019c7:	e8 f4 f9 ff ff       	call   4013c0 <__printf_chk@plt>
  4019cc:	be 00 00 00 00       	mov    $0x0,%esi
  4019d1:	48 8b 3d d0 5a 00 00 	mov    0x5ad0(%rip),%rdi        # 4074a8 <buf_offset>
  4019d8:	e8 bc 0f 00 00       	call   402999 <stable_launch>
  4019dd:	b8 00 00 00 00       	mov    $0x0,%eax
  4019e2:	48 8b 4c 24 58       	mov    0x58(%rsp),%rcx
  4019e7:	64 48 33 0c 25 28 00 	xor    %fs:0x28,%rcx
  4019ee:	00 00 
  4019f0:	75 0d                	jne    4019ff <main+0x266>
  4019f2:	48 83 c4 60          	add    $0x60,%rsp
  4019f6:	5b                   	pop    %rbx
  4019f7:	5d                   	pop    %rbp
  4019f8:	41 5c                	pop    %r12
  4019fa:	41 5d                	pop    %r13
  4019fc:	41 5e                	pop    %r14
  4019fe:	c3                   	ret    
  4019ff:	e8 39 0e 00 00       	call   40283d <__stack_chk_fail>

0000000000401a04 <scramble>:
  401a04:	f3 0f 1e fa          	endbr64 
  401a08:	48 83 ec 38          	sub    $0x38,%rsp
  401a0c:	64 48 8b 04 25 28 00 	mov    %fs:0x28,%rax
  401a13:	00 00 
  401a15:	48 89 44 24 28       	mov    %rax,0x28(%rsp)
  401a1a:	31 c0                	xor    %eax,%eax
  401a1c:	83 f8 09             	cmp    $0x9,%eax
  401a1f:	77 12                	ja     401a33 <scramble+0x2f>
  401a21:	69 d0 b5 c7 00 00    	imul   $0xc7b5,%eax,%edx
  401a27:	01 fa                	add    %edi,%edx
  401a29:	89 c1                	mov    %eax,%ecx
  401a2b:	89 14 8c             	mov    %edx,(%rsp,%rcx,4)
  401a2e:	83 c0 01             	add    $0x1,%eax
  401a31:	eb e9                	jmp    401a1c <scramble+0x18>
  401a33:	8b 44 24 10          	mov    0x10(%rsp),%eax
  401a37:	69 c0 d9 d1 00 00    	imul   $0xd1d9,%eax,%eax
  401a3d:	89 44 24 10          	mov    %eax,0x10(%rsp)
  401a41:	8b 44 24 0c          	mov    0xc(%rsp),%eax
  401a45:	69 c0 da 75 00 00    	imul   $0x75da,%eax,%eax
  401a4b:	89 44 24 0c          	mov    %eax,0xc(%rsp)
  401a4f:	8b 44 24 18          	mov    0x18(%rsp),%eax
  401a53:	69 c0 aa 25 00 00    	imul   $0x25aa,%eax,%eax
  401a59:	89 44 24 18          	mov    %eax,0x18(%rsp)
  401a5d:	8b 44 24 08          	mov    0x8(%rsp),%eax
  401a61:	69 c0 0e b2 00 00    	imul   $0xb20e,%eax,%eax
  401a67:	89 44 24 08          	mov    %eax,0x8(%rsp)
  401a6b:	8b 44 24 14          	mov    0x14(%rsp),%eax
  401a6f:	69 c0 5b 48 00 00    	imul   $0x485b,%eax,%eax
  401a75:	89 44 24 14          	mov    %eax,0x14(%rsp)
  401a79:	8b 44 24 18          	mov    0x18(%rsp),%eax
  401a7d:	69 c0 f9 24 00 00    	imul   $0x24f9,%eax,%eax
  401a83:	89 44 24 18          	mov    %eax,0x18(%rsp)
  401a87:	8b 44 24 20          	mov    0x20(%rsp),%eax
  401a8b:	69 c0 ab 13 00 00    	imul   $0x13ab,%eax,%eax
  401a91:	89 44 24 20          	mov    %eax,0x20(%rsp)
  401a95:	8b 44 24 08          	mov    0x8(%rsp),%eax
  401a99:	69 c0 2f 97 00 00    	imul   $0x972f,%eax,%eax
  401a9f:	89 44 24 08          	mov    %eax,0x8(%rsp)
  401aa3:	8b 44 24 18          	mov    0x18(%rsp),%eax
  401aa7:	69 c0 10 cf 00 00    	imul   $0xcf10,%eax,%eax
  401aad:	89 44 24 18          	mov    %eax,0x18(%rsp)
  401ab1:	8b 04 24             	mov    (%rsp),%eax
  401ab4:	69 c0 e2 9f 00 00    	imul   $0x9fe2,%eax,%eax
  401aba:	89 04 24             	mov    %eax,(%rsp)
  401abd:	8b 44 24 10          	mov    0x10(%rsp),%eax
  401ac1:	69 c0 d0 4a 00 00    	imul   $0x4ad0,%eax,%eax
  401ac7:	89 44 24 10          	mov    %eax,0x10(%rsp)
  401acb:	8b 44 24 10          	mov    0x10(%rsp),%eax
  401acf:	69 c0 01 4e 00 00    	imul   $0x4e01,%eax,%eax
  401ad5:	89 44 24 10          	mov    %eax,0x10(%rsp)
  401ad9:	8b 44 24 04          	mov    0x4(%rsp),%eax
  401add:	69 c0 b5 6b 00 00    	imul   $0x6bb5,%eax,%eax
  401ae3:	89 44 24 04          	mov    %eax,0x4(%rsp)
  401ae7:	8b 04 24             	mov    (%rsp),%eax
  401aea:	69 c0 78 c7 00 00    	imul   $0xc778,%eax,%eax
  401af0:	89 04 24             	mov    %eax,(%rsp)
  401af3:	8b 44 24 10          	mov    0x10(%rsp),%eax
  401af7:	69 c0 a3 93 00 00    	imul   $0x93a3,%eax,%eax
  401afd:	89 44 24 10          	mov    %eax,0x10(%rsp)
  401b01:	8b 44 24 20          	mov    0x20(%rsp),%eax
  401b05:	69 c0 56 36 00 00    	imul   $0x3656,%eax,%eax
  401b0b:	89 44 24 20          	mov    %eax,0x20(%rsp)
  401b0f:	8b 44 24 10          	mov    0x10(%rsp),%eax
  401b13:	69 c0 6e 83 00 00    	imul   $0x836e,%eax,%eax
  401b19:	89 44 24 10          	mov    %eax,0x10(%rsp)
  401b1d:	8b 44 24 08          	mov    0x8(%rsp),%eax
  401b21:	69 c0 39 af 00 00    	imul   $0xaf39,%eax,%eax
  401b27:	89 44 24 08          	mov    %eax,0x8(%rsp)
  401b2b:	8b 44 24 04          	mov    0x4(%rsp),%eax
  401b2f:	69 c0 be 4d 00 00    	imul   $0x4dbe,%eax,%eax
  401b35:	89 44 24 04          	mov    %eax,0x4(%rsp)
  401b39:	8b 44 24 1c          	mov    0x1c(%rsp),%eax
  401b3d:	69 c0 29 9e 00 00    	imul   $0x9e29,%eax,%eax
  401b43:	89 44 24 1c          	mov    %eax,0x1c(%rsp)
  401b47:	8b 44 24 10          	mov    0x10(%rsp),%eax
  401b4b:	69 c0 f0 86 00 00    	imul   $0x86f0,%eax,%eax
  401b51:	89 44 24 10          	mov    %eax,0x10(%rsp)
  401b55:	8b 44 24 1c          	mov    0x1c(%rsp),%eax
  401b59:	69 c0 30 5b 00 00    	imul   $0x5b30,%eax,%eax
  401b5f:	89 44 24 1c          	mov    %eax,0x1c(%rsp)
  401b63:	8b 44 24 0c          	mov    0xc(%rsp),%eax
  401b67:	69 c0 d1 e8 00 00    	imul   $0xe8d1,%eax,%eax
  401b6d:	89 44 24 0c          	mov    %eax,0xc(%rsp)
  401b71:	8b 44 24 0c          	mov    0xc(%rsp),%eax
  401b75:	69 c0 fd 31 00 00    	imul   $0x31fd,%eax,%eax
  401b7b:	89 44 24 0c          	mov    %eax,0xc(%rsp)
  401b7f:	8b 44 24 04          	mov    0x4(%rsp),%eax
  401b83:	69 c0 f5 22 00 00    	imul   $0x22f5,%eax,%eax
  401b89:	89 44 24 04          	mov    %eax,0x4(%rsp)
  401b8d:	8b 44 24 04          	mov    0x4(%rsp),%eax
  401b91:	69 c0 41 3d 00 00    	imul   $0x3d41,%eax,%eax
  401b97:	89 44 24 04          	mov    %eax,0x4(%rsp)
  401b9b:	8b 44 24 0c          	mov    0xc(%rsp),%eax
  401b9f:	69 c0 cb 6d 00 00    	imul   $0x6dcb,%eax,%eax
  401ba5:	89 44 24 0c          	mov    %eax,0xc(%rsp)
  401ba9:	8b 44 24 1c          	mov    0x1c(%rsp),%eax
  401bad:	69 c0 0c 32 00 00    	imul   $0x320c,%eax,%eax
  401bb3:	89 44 24 1c          	mov    %eax,0x1c(%rsp)
  401bb7:	8b 44 24 10          	mov    0x10(%rsp),%eax
  401bbb:	69 c0 a8 e3 00 00    	imul   $0xe3a8,%eax,%eax
  401bc1:	89 44 24 10          	mov    %eax,0x10(%rsp)
  401bc5:	8b 44 24 1c          	mov    0x1c(%rsp),%eax
  401bc9:	69 c0 21 48 00 00    	imul   $0x4821,%eax,%eax
  401bcf:	89 44 24 1c          	mov    %eax,0x1c(%rsp)
  401bd3:	8b 44 24 24          	mov    0x24(%rsp),%eax
  401bd7:	69 c0 cc ba 00 00    	imul   $0xbacc,%eax,%eax
  401bdd:	89 44 24 24          	mov    %eax,0x24(%rsp)
  401be1:	8b 44 24 20          	mov    0x20(%rsp),%eax
  401be5:	69 c0 c7 dc 00 00    	imul   $0xdcc7,%eax,%eax
  401beb:	89 44 24 20          	mov    %eax,0x20(%rsp)
  401bef:	8b 44 24 18          	mov    0x18(%rsp),%eax
  401bf3:	69 c0 a8 2a 00 00    	imul   $0x2aa8,%eax,%eax
  401bf9:	89 44 24 18          	mov    %eax,0x18(%rsp)
  401bfd:	8b 04 24             	mov    (%rsp),%eax
  401c00:	69 c0 53 e7 00 00    	imul   $0xe753,%eax,%eax
  401c06:	89 04 24             	mov    %eax,(%rsp)
  401c09:	8b 04 24             	mov    (%rsp),%eax
  401c0c:	69 c0 47 ed 00 00    	imul   $0xed47,%eax,%eax
  401c12:	89 04 24             	mov    %eax,(%rsp)
  401c15:	8b 44 24 20          	mov    0x20(%rsp),%eax
  401c19:	69 c0 80 0e 00 00    	imul   $0xe80,%eax,%eax
  401c1f:	89 44 24 20          	mov    %eax,0x20(%rsp)
  401c23:	8b 44 24 08          	mov    0x8(%rsp),%eax
  401c27:	69 c0 9e 48 00 00    	imul   $0x489e,%eax,%eax
  401c2d:	89 44 24 08          	mov    %eax,0x8(%rsp)
  401c31:	8b 44 24 04          	mov    0x4(%rsp),%eax
  401c35:	69 c0 d3 0e 00 00    	imul   $0xed3,%eax,%eax
  401c3b:	89 44 24 04          	mov    %eax,0x4(%rsp)
  401c3f:	8b 44 24 24          	mov    0x24(%rsp),%eax
  401c43:	69 c0 0f 5c 00 00    	imul   $0x5c0f,%eax,%eax
  401c49:	89 44 24 24          	mov    %eax,0x24(%rsp)
  401c4d:	8b 44 24 1c          	mov    0x1c(%rsp),%eax
  401c51:	69 c0 51 e9 00 00    	imul   $0xe951,%eax,%eax
  401c57:	89 44 24 1c          	mov    %eax,0x1c(%rsp)
  401c5b:	8b 04 24             	mov    (%rsp),%eax
  401c5e:	69 c0 b0 12 00 00    	imul   $0x12b0,%eax,%eax
  401c64:	89 04 24             	mov    %eax,(%rsp)
  401c67:	8b 04 24             	mov    (%rsp),%eax
  401c6a:	69 c0 ca ec 00 00    	imul   $0xecca,%eax,%eax
  401c70:	89 04 24             	mov    %eax,(%rsp)
  401c73:	8b 44 24 10          	mov    0x10(%rsp),%eax
  401c77:	69 c0 d5 b1 00 00    	imul   $0xb1d5,%eax,%eax
  401c7d:	89 44 24 10          	mov    %eax,0x10(%rsp)
  401c81:	8b 44 24 24          	mov    0x24(%rsp),%eax
  401c85:	69 c0 fd 59 00 00    	imul   $0x59fd,%eax,%eax
  401c8b:	89 44 24 24          	mov    %eax,0x24(%rsp)
  401c8f:	8b 44 24 18          	mov    0x18(%rsp),%eax
  401c93:	69 c0 5b 18 00 00    	imul   $0x185b,%eax,%eax
  401c99:	89 44 24 18          	mov    %eax,0x18(%rsp)
  401c9d:	8b 44 24 04          	mov    0x4(%rsp),%eax
  401ca1:	69 c0 c8 0c 00 00    	imul   $0xcc8,%eax,%eax
  401ca7:	89 44 24 04          	mov    %eax,0x4(%rsp)
  401cab:	8b 44 24 0c          	mov    0xc(%rsp),%eax
  401caf:	69 c0 96 20 00 00    	imul   $0x2096,%eax,%eax
  401cb5:	89 44 24 0c          	mov    %eax,0xc(%rsp)
  401cb9:	8b 44 24 08          	mov    0x8(%rsp),%eax
  401cbd:	69 c0 62 11 00 00    	imul   $0x1162,%eax,%eax
  401cc3:	89 44 24 08          	mov    %eax,0x8(%rsp)
  401cc7:	8b 44 24 0c          	mov    0xc(%rsp),%eax
  401ccb:	69 c0 8f 75 00 00    	imul   $0x758f,%eax,%eax
  401cd1:	89 44 24 0c          	mov    %eax,0xc(%rsp)
  401cd5:	8b 44 24 04          	mov    0x4(%rsp),%eax
  401cd9:	69 c0 a4 c3 00 00    	imul   $0xc3a4,%eax,%eax
  401cdf:	89 44 24 04          	mov    %eax,0x4(%rsp)
  401ce3:	8b 44 24 08          	mov    0x8(%rsp),%eax
  401ce7:	69 c0 31 7e 00 00    	imul   $0x7e31,%eax,%eax
  401ced:	89 44 24 08          	mov    %eax,0x8(%rsp)
  401cf1:	8b 44 24 04          	mov    0x4(%rsp),%eax
  401cf5:	69 c0 0f d7 00 00    	imul   $0xd70f,%eax,%eax
  401cfb:	89 44 24 04          	mov    %eax,0x4(%rsp)
  401cff:	8b 04 24             	mov    (%rsp),%eax
  401d02:	69 c0 d4 3b 00 00    	imul   $0x3bd4,%eax,%eax
  401d08:	89 04 24             	mov    %eax,(%rsp)
  401d0b:	8b 44 24 08          	mov    0x8(%rsp),%eax
  401d0f:	69 c0 3f f8 00 00    	imul   $0xf83f,%eax,%eax
  401d15:	89 44 24 08          	mov    %eax,0x8(%rsp)
  401d19:	8b 04 24             	mov    (%rsp),%eax
  401d1c:	69 c0 b3 26 00 00    	imul   $0x26b3,%eax,%eax
  401d22:	89 04 24             	mov    %eax,(%rsp)
  401d25:	8b 44 24 10          	mov    0x10(%rsp),%eax
  401d29:	69 c0 e9 16 00 00    	imul   $0x16e9,%eax,%eax
  401d2f:	89 44 24 10          	mov    %eax,0x10(%rsp)
  401d33:	8b 44 24 24          	mov    0x24(%rsp),%eax
  401d37:	69 c0 22 08 00 00    	imul   $0x822,%eax,%eax
  401d3d:	89 44 24 24          	mov    %eax,0x24(%rsp)
  401d41:	8b 44 24 20          	mov    0x20(%rsp),%eax
  401d45:	69 c0 e0 b9 00 00    	imul   $0xb9e0,%eax,%eax
  401d4b:	89 44 24 20          	mov    %eax,0x20(%rsp)
  401d4f:	8b 44 24 0c          	mov    0xc(%rsp),%eax
  401d53:	69 c0 8a 22 00 00    	imul   $0x228a,%eax,%eax
  401d59:	89 44 24 0c          	mov    %eax,0xc(%rsp)
  401d5d:	8b 44 24 24          	mov    0x24(%rsp),%eax
  401d61:	69 c0 75 4f 00 00    	imul   $0x4f75,%eax,%eax
  401d67:	89 44 24 24          	mov    %eax,0x24(%rsp)
  401d6b:	8b 44 24 20          	mov    0x20(%rsp),%eax
  401d6f:	69 c0 fb b5 00 00    	imul   $0xb5fb,%eax,%eax
  401d75:	89 44 24 20          	mov    %eax,0x20(%rsp)
  401d79:	8b 44 24 1c          	mov    0x1c(%rsp),%eax
  401d7d:	69 c0 0c 0e 00 00    	imul   $0xe0c,%eax,%eax
  401d83:	89 44 24 1c          	mov    %eax,0x1c(%rsp)
  401d87:	8b 44 24 10          	mov    0x10(%rsp),%eax
  401d8b:	69 c0 cd 45 00 00    	imul   $0x45cd,%eax,%eax
  401d91:	89 44 24 10          	mov    %eax,0x10(%rsp)
  401d95:	8b 44 24 1c          	mov    0x1c(%rsp),%eax
  401d99:	69 c0 cf 21 00 00    	imul   $0x21cf,%eax,%eax
  401d9f:	89 44 24 1c          	mov    %eax,0x1c(%rsp)
  401da3:	8b 44 24 10          	mov    0x10(%rsp),%eax
  401da7:	69 c0 23 18 00 00    	imul   $0x1823,%eax,%eax
  401dad:	89 44 24 10          	mov    %eax,0x10(%rsp)
  401db1:	8b 44 24 08          	mov    0x8(%rsp),%eax
  401db5:	69 c0 34 1e 00 00    	imul   $0x1e34,%eax,%eax
  401dbb:	89 44 24 08          	mov    %eax,0x8(%rsp)
  401dbf:	8b 44 24 04          	mov    0x4(%rsp),%eax
  401dc3:	69 c0 98 b7 00 00    	imul   $0xb798,%eax,%eax
  401dc9:	89 44 24 04          	mov    %eax,0x4(%rsp)
  401dcd:	8b 44 24 0c          	mov    0xc(%rsp),%eax
  401dd1:	69 c0 24 5d 00 00    	imul   $0x5d24,%eax,%eax
  401dd7:	89 44 24 0c          	mov    %eax,0xc(%rsp)
  401ddb:	8b 44 24 24          	mov    0x24(%rsp),%eax
  401ddf:	69 c0 25 db 00 00    	imul   $0xdb25,%eax,%eax
  401de5:	89 44 24 24          	mov    %eax,0x24(%rsp)
  401de9:	8b 44 24 0c          	mov    0xc(%rsp),%eax
  401ded:	69 c0 51 8b 00 00    	imul   $0x8b51,%eax,%eax
  401df3:	89 44 24 0c          	mov    %eax,0xc(%rsp)
  401df7:	8b 44 24 18          	mov    0x18(%rsp),%eax
  401dfb:	69 c0 f3 36 00 00    	imul   $0x36f3,%eax,%eax
  401e01:	89 44 24 18          	mov    %eax,0x18(%rsp)
  401e05:	8b 44 24 0c          	mov    0xc(%rsp),%eax
  401e09:	69 c0 3d 3b 00 00    	imul   $0x3b3d,%eax,%eax
  401e0f:	89 44 24 0c          	mov    %eax,0xc(%rsp)
  401e13:	8b 44 24 14          	mov    0x14(%rsp),%eax
  401e17:	69 c0 ed a5 00 00    	imul   $0xa5ed,%eax,%eax
  401e1d:	89 44 24 14          	mov    %eax,0x14(%rsp)
  401e21:	8b 44 24 14          	mov    0x14(%rsp),%eax
  401e25:	69 c0 0d f9 00 00    	imul   $0xf90d,%eax,%eax
  401e2b:	89 44 24 14          	mov    %eax,0x14(%rsp)
  401e2f:	8b 44 24 14          	mov    0x14(%rsp),%eax
  401e33:	69 c0 fa 08 00 00    	imul   $0x8fa,%eax,%eax
  401e39:	89 44 24 14          	mov    %eax,0x14(%rsp)
  401e3d:	8b 44 24 24          	mov    0x24(%rsp),%eax
  401e41:	69 c0 5c 03 00 00    	imul   $0x35c,%eax,%eax
  401e47:	89 44 24 24          	mov    %eax,0x24(%rsp)
  401e4b:	8b 44 24 1c          	mov    0x1c(%rsp),%eax
  401e4f:	69 c0 c1 a4 00 00    	imul   $0xa4c1,%eax,%eax
  401e55:	89 44 24 1c          	mov    %eax,0x1c(%rsp)
  401e59:	8b 04 24             	mov    (%rsp),%eax
  401e5c:	69 c0 87 95 00 00    	imul   $0x9587,%eax,%eax
  401e62:	89 04 24             	mov    %eax,(%rsp)
  401e65:	8b 44 24 20          	mov    0x20(%rsp),%eax
  401e69:	69 c0 d7 30 00 00    	imul   $0x30d7,%eax,%eax
  401e6f:	89 44 24 20          	mov    %eax,0x20(%rsp)
  401e73:	8b 44 24 04          	mov    0x4(%rsp),%eax
  401e77:	69 c0 eb a5 00 00    	imul   $0xa5eb,%eax,%eax
  401e7d:	89 44 24 04          	mov    %eax,0x4(%rsp)
  401e81:	8b 44 24 1c          	mov    0x1c(%rsp),%eax
  401e85:	69 c0 ca 9c 00 00    	imul   $0x9cca,%eax,%eax
  401e8b:	89 44 24 1c          	mov    %eax,0x1c(%rsp)
  401e8f:	8b 44 24 04          	mov    0x4(%rsp),%eax
  401e93:	69 c0 4f df 00 00    	imul   $0xdf4f,%eax,%eax
  401e99:	89 44 24 04          	mov    %eax,0x4(%rsp)
  401e9d:	8b 44 24 04          	mov    0x4(%rsp),%eax
  401ea1:	69 c0 62 b9 00 00    	imul   $0xb962,%eax,%eax
  401ea7:	89 44 24 04          	mov    %eax,0x4(%rsp)
  401eab:	8b 44 24 10          	mov    0x10(%rsp),%eax
  401eaf:	69 c0 d0 47 00 00    	imul   $0x47d0,%eax,%eax
  401eb5:	89 44 24 10          	mov    %eax,0x10(%rsp)
  401eb9:	8b 44 24 04          	mov    0x4(%rsp),%eax
  401ebd:	69 c0 d6 91 00 00    	imul   $0x91d6,%eax,%eax
  401ec3:	89 44 24 04          	mov    %eax,0x4(%rsp)
  401ec7:	8b 44 24 0c          	mov    0xc(%rsp),%eax
  401ecb:	69 c0 61 96 00 00    	imul   $0x9661,%eax,%eax
  401ed1:	89 44 24 0c          	mov    %eax,0xc(%rsp)
  401ed5:	8b 44 24 20          	mov    0x20(%rsp),%eax
  401ed9:	69 c0 5b 75 00 00    	imul   $0x755b,%eax,%eax
  401edf:	89 44 24 20          	mov    %eax,0x20(%rsp)
  401ee3:	8b 44 24 18          	mov    0x18(%rsp),%eax
  401ee7:	69 c0 df 07 00 00    	imul   $0x7df,%eax,%eax
  401eed:	89 44 24 18          	mov    %eax,0x18(%rsp)
  401ef1:	8b 44 24 08          	mov    0x8(%rsp),%eax
  401ef5:	69 c0 bb c6 00 00    	imul   $0xc6bb,%eax,%eax
  401efb:	89 44 24 08          	mov    %eax,0x8(%rsp)
  401eff:	8b 44 24 0c          	mov    0xc(%rsp),%eax
  401f03:	69 c0 c0 e3 00 00    	imul   $0xe3c0,%eax,%eax
  401f09:	89 44 24 0c          	mov    %eax,0xc(%rsp)
  401f0d:	8b 44 24 20          	mov    0x20(%rsp),%eax
  401f11:	69 c0 6f 49 00 00    	imul   $0x496f,%eax,%eax
  401f17:	89 44 24 20          	mov    %eax,0x20(%rsp)
  401f1b:	8b 44 24 18          	mov    0x18(%rsp),%eax
  401f1f:	69 c0 aa 8e 00 00    	imul   $0x8eaa,%eax,%eax
  401f25:	89 44 24 18          	mov    %eax,0x18(%rsp)
  401f29:	8b 44 24 04          	mov    0x4(%rsp),%eax
  401f2d:	69 c0 85 f8 00 00    	imul   $0xf885,%eax,%eax
  401f33:	89 44 24 04          	mov    %eax,0x4(%rsp)
  401f37:	8b 44 24 1c          	mov    0x1c(%rsp),%eax
  401f3b:	69 c0 bf d8 00 00    	imul   $0xd8bf,%eax,%eax
  401f41:	89 44 24 1c          	mov    %eax,0x1c(%rsp)
  401f45:	b8 00 00 00 00       	mov    $0x0,%eax
  401f4a:	ba 00 00 00 00       	mov    $0x0,%edx
  401f4f:	83 f8 09             	cmp    $0x9,%eax
  401f52:	77 0c                	ja     401f60 <scramble+0x55c>
  401f54:	89 c1                	mov    %eax,%ecx
  401f56:	8b 0c 8c             	mov    (%rsp,%rcx,4),%ecx
  401f59:	01 ca                	add    %ecx,%edx
  401f5b:	83 c0 01             	add    $0x1,%eax
  401f5e:	eb ef                	jmp    401f4f <scramble+0x54b>
  401f60:	48 8b 44 24 28       	mov    0x28(%rsp),%rax
  401f65:	64 48 33 04 25 28 00 	xor    %fs:0x28,%rax
  401f6c:	00 00 
  401f6e:	75 07                	jne    401f77 <scramble+0x573>
  401f70:	89 d0                	mov    %edx,%eax
  401f72:	48 83 c4 38          	add    $0x38,%rsp
  401f76:	c3                   	ret    
  401f77:	e8 c1 08 00 00       	call   40283d <__stack_chk_fail>

0000000000401f7c <getbuf>:
  401f7c:	f3 0f 1e fa          	endbr64 
  401f80:	48 83 ec 18          	sub    $0x18,%rsp
  401f84:	48 89 e7             	mov    %rsp,%rdi
  401f87:	e8 cd 03 00 00       	call   402359 <Gets>
  401f8c:	b8 01 00 00 00       	mov    $0x1,%eax
  401f91:	48 83 c4 18          	add    $0x18,%rsp
  401f95:	c3                   	ret    

0000000000401f96 <getbuf_withcanary>:
  401f96:	f3 0f 1e fa          	endbr64 
  401f9a:	55                   	push   %rbp
  401f9b:	48 89 e5             	mov    %rsp,%rbp
  401f9e:	48 81 ec 90 01 00 00 	sub    $0x190,%rsp
  401fa5:	64 48 8b 04 25 28 00 	mov    %fs:0x28,%rax
  401fac:	00 00 
  401fae:	48 89 45 f8          	mov    %rax,-0x8(%rbp)
  401fb2:	31 c0                	xor    %eax,%eax
  401fb4:	c7 85 74 ff ff ff 00 	movl   $0x0,-0x8c(%rbp)
  401fbb:	00 00 00 
  401fbe:	8b 85 74 ff ff ff    	mov    -0x8c(%rbp),%eax
  401fc4:	89 85 70 ff ff ff    	mov    %eax,-0x90(%rbp)
  401fca:	48 8d 85 70 fe ff ff 	lea    -0x190(%rbp),%rax
  401fd1:	48 89 c7             	mov    %rax,%rdi
  401fd4:	e8 80 03 00 00       	call   402359 <Gets>
  401fd9:	8b 85 70 ff ff ff    	mov    -0x90(%rbp),%eax
  401fdf:	48 63 d0             	movslq %eax,%rdx
  401fe2:	48 8d 85 70 fe ff ff 	lea    -0x190(%rbp),%rax
  401fe9:	48 8d 88 08 01 00 00 	lea    0x108(%rax),%rcx
  401ff0:	48 8d 85 70 fe ff ff 	lea    -0x190(%rbp),%rax
  401ff7:	48 89 ce             	mov    %rcx,%rsi
  401ffa:	48 89 c7             	mov    %rax,%rdi
  401ffd:	e8 6e f3 ff ff       	call   401370 <memcpy@plt>
  402002:	8b 85 74 ff ff ff    	mov    -0x8c(%rbp),%eax
  402008:	48 63 d0             	movslq %eax,%rdx
  40200b:	48 8d 85 70 fe ff ff 	lea    -0x190(%rbp),%rax
  402012:	48 8d 8d 70 fe ff ff 	lea    -0x190(%rbp),%rcx
  402019:	48 81 c1 08 01 00 00 	add    $0x108,%rcx
  402020:	48 89 c6             	mov    %rax,%rsi
  402023:	48 89 cf             	mov    %rcx,%rdi
  402026:	e8 45 f3 ff ff       	call   401370 <memcpy@plt>
  40202b:	b8 01 00 00 00       	mov    $0x1,%eax
  402030:	48 8b 55 f8          	mov    -0x8(%rbp),%rdx
  402034:	64 48 2b 14 25 28 00 	sub    %fs:0x28,%rdx
  40203b:	00 00 
  40203d:	74 05                	je     402044 <getbuf_withcanary+0xae>
  40203f:	e8 f9 07 00 00       	call   40283d <__stack_chk_fail>
  402044:	c9                   	leave  
  402045:	c3                   	ret    

0000000000402046 <touch1>:
  **402046**:	f3 0f 1e fa          	endbr64 
  40204a:	50                   	push   %rax
  40204b:	58                   	pop    %rax
  40204c:	48 83 ec 08          	sub    $0x8,%rsp
  402050:	c7 05 c2 54 00 00 01 	movl   $0x1,0x54c2(%rip)        # 40751c <vlevel>
  402057:	00 00 00 
  40205a:	48 8d 3d b5 22 00 00 	lea    0x22b5(%rip),%rdi        # 404316 <_IO_stdin_used+0x316>
  402061:	e8 4a f2 ff ff       	call   4012b0 <puts@plt>
  402066:	bf 01 00 00 00       	mov    $0x1,%edi
  40206b:	e8 5b 05 00 00       	call   4025cb <validate>
  402070:	bf 00 00 00 00       	mov    $0x0,%edi
  402075:	e8 96 f3 ff ff       	call   401410 <exit@plt>

000000000040207a <touch2>:
  40207a:	f3 0f 1e fa          	endbr64 
  40207e:	50                   	push   %rax
  40207f:	58                   	pop    %rax
  402080:	48 83 ec 08          	sub    $0x8,%rsp
  402084:	89 fa                	mov    %edi,%edx
  402086:	c7 05 8c 54 00 00 02 	movl   $0x2,0x548c(%rip)        # 40751c <vlevel>
  40208d:	00 00 00 
  402090:	39 3d 8e 54 00 00    	cmp    %edi,0x548e(%rip)        # 407524 <cookie>
  402096:	74 2a                	je     4020c2 <touch2+0x48>
  402098:	48 8d 35 c1 22 00 00 	lea    0x22c1(%rip),%rsi        # 404360 <_IO_stdin_used+0x360>
  40209f:	bf 01 00 00 00       	mov    $0x1,%edi
  4020a4:	b8 00 00 00 00       	mov    $0x0,%eax
  4020a9:	e8 12 f3 ff ff       	call   4013c0 <__printf_chk@plt>
  4020ae:	bf 02 00 00 00       	mov    $0x2,%edi
  4020b3:	e8 ee 05 00 00       	call   4026a6 <fail>
  4020b8:	bf 00 00 00 00       	mov    $0x0,%edi
  4020bd:	e8 4e f3 ff ff       	call   401410 <exit@plt>
  4020c2:	48 8d 35 6f 22 00 00 	lea    0x226f(%rip),%rsi        # 404338 <_IO_stdin_used+0x338>
  4020c9:	bf 01 00 00 00       	mov    $0x1,%edi
  4020ce:	b8 00 00 00 00       	mov    $0x0,%eax
  4020d3:	e8 e8 f2 ff ff       	call   4013c0 <__printf_chk@plt>
  4020d8:	bf 02 00 00 00       	mov    $0x2,%edi
  4020dd:	e8 e9 04 00 00       	call   4025cb <validate>
  4020e2:	eb d4                	jmp    4020b8 <touch2+0x3e>

00000000004020e4 <hexmatch>:
  4020e4:	f3 0f 1e fa          	endbr64 
  4020e8:	41 55                	push   %r13
  4020ea:	41 54                	push   %r12
  4020ec:	55                   	push   %rbp
  4020ed:	53                   	push   %rbx
  4020ee:	48 81 ec 88 00 00 00 	sub    $0x88,%rsp
  4020f5:	89 fd                	mov    %edi,%ebp
  4020f7:	48 89 f3             	mov    %rsi,%rbx
  4020fa:	41 bc 28 00 00 00    	mov    $0x28,%r12d
  402100:	64 49 8b 04 24       	mov    %fs:(%r12),%rax
  402105:	48 89 44 24 78       	mov    %rax,0x78(%rsp)
  40210a:	31 c0                	xor    %eax,%eax
  40210c:	e8 7f f2 ff ff       	call   401390 <random@plt>
  402111:	48 89 c1             	mov    %rax,%rcx
  402114:	48 ba 0b d7 a3 70 3d 	movabs $0xa3d70a3d70a3d70b,%rdx
  40211b:	0a d7 a3 
  40211e:	48 f7 ea             	imul   %rdx
  402121:	48 01 ca             	add    %rcx,%rdx
  402124:	48 c1 fa 06          	sar    $0x6,%rdx
  402128:	48 89 c8             	mov    %rcx,%rax
  40212b:	48 c1 f8 3f          	sar    $0x3f,%rax
  40212f:	48 29 c2             	sub    %rax,%rdx
  402132:	48 8d 04 92          	lea    (%rdx,%rdx,4),%rax
  402136:	48 8d 04 80          	lea    (%rax,%rax,4),%rax
  40213a:	48 c1 e0 02          	shl    $0x2,%rax
  40213e:	48 29 c1             	sub    %rax,%rcx
  402141:	4c 8d 2c 0c          	lea    (%rsp,%rcx,1),%r13
  402145:	41 89 e8             	mov    %ebp,%r8d
  402148:	48 8d 0d e4 21 00 00 	lea    0x21e4(%rip),%rcx        # 404333 <_IO_stdin_used+0x333>
  40214f:	48 c7 c2 ff ff ff ff 	mov    $0xffffffffffffffff,%rdx
  402156:	be 01 00 00 00       	mov    $0x1,%esi
  40215b:	4c 89 ef             	mov    %r13,%rdi
  40215e:	b8 00 00 00 00       	mov    $0x0,%eax
  402163:	e8 e8 f2 ff ff       	call   401450 <__sprintf_chk@plt>
  402168:	ba 09 00 00 00       	mov    $0x9,%edx
  40216d:	4c 89 ee             	mov    %r13,%rsi
  402170:	48 89 df             	mov    %rbx,%rdi
  402173:	e8 18 f1 ff ff       	call   401290 <strncmp@plt>
  402178:	85 c0                	test   %eax,%eax
  40217a:	0f 94 c0             	sete   %al
  40217d:	48 8b 5c 24 78       	mov    0x78(%rsp),%rbx
  402182:	64 49 33 1c 24       	xor    %fs:(%r12),%rbx
  402187:	75 11                	jne    40219a <hexmatch+0xb6>
  402189:	0f b6 c0             	movzbl %al,%eax
  40218c:	48 81 c4 88 00 00 00 	add    $0x88,%rsp
  402193:	5b                   	pop    %rbx
  402194:	5d                   	pop    %rbp
  402195:	41 5c                	pop    %r12
  402197:	41 5d                	pop    %r13
  402199:	c3                   	ret    
  40219a:	e8 9e 06 00 00       	call   40283d <__stack_chk_fail>

000000000040219f <touch3>:
  40219f:	f3 0f 1e fa          	endbr64 
  4021a3:	53                   	push   %rbx
  4021a4:	48 89 fb             	mov    %rdi,%rbx
  4021a7:	c7 05 6b 53 00 00 03 	movl   $0x3,0x536b(%rip)        # 40751c <vlevel>
  4021ae:	00 00 00 
  4021b1:	48 89 fe             	mov    %rdi,%rsi
  4021b4:	8b 3d 6a 53 00 00    	mov    0x536a(%rip),%edi        # 407524 <cookie>
  4021ba:	e8 25 ff ff ff       	call   4020e4 <hexmatch>
  4021bf:	85 c0                	test   %eax,%eax
  4021c1:	74 2d                	je     4021f0 <touch3+0x51>
  4021c3:	48 89 da             	mov    %rbx,%rdx
  4021c6:	48 8d 35 bb 21 00 00 	lea    0x21bb(%rip),%rsi        # 404388 <_IO_stdin_used+0x388>
  4021cd:	bf 01 00 00 00       	mov    $0x1,%edi
  4021d2:	b8 00 00 00 00       	mov    $0x0,%eax
  4021d7:	e8 e4 f1 ff ff       	call   4013c0 <__printf_chk@plt>
  4021dc:	bf 03 00 00 00       	mov    $0x3,%edi
  4021e1:	e8 e5 03 00 00       	call   4025cb <validate>
  4021e6:	bf 00 00 00 00       	mov    $0x0,%edi
  4021eb:	e8 20 f2 ff ff       	call   401410 <exit@plt>
  4021f0:	48 89 da             	mov    %rbx,%rdx
  4021f3:	48 8d 35 b6 21 00 00 	lea    0x21b6(%rip),%rsi        # 4043b0 <_IO_stdin_used+0x3b0>
  4021fa:	bf 01 00 00 00       	mov    $0x1,%edi
  4021ff:	b8 00 00 00 00       	mov    $0x0,%eax
  402204:	e8 b7 f1 ff ff       	call   4013c0 <__printf_chk@plt>
  402209:	bf 03 00 00 00       	mov    $0x3,%edi
  40220e:	e8 93 04 00 00       	call   4026a6 <fail>
  402213:	eb d1                	jmp    4021e6 <touch3+0x47>

0000000000402215 <test>:
  402215:	f3 0f 1e fa          	endbr64 
  402219:	48 83 ec 08          	sub    $0x8,%rsp
  40221d:	b8 00 00 00 00       	mov    $0x0,%eax
  402222:	e8 55 fd ff ff       	call   401f7c <getbuf>
  402227:	89 c2                	mov    %eax,%edx
  402229:	48 89 e0             	mov    %rsp,%rax
  40222c:	48 83 e0 0f          	and    $0xf,%rax
  402230:	74 07                	je     402239 <aligned4>
  402232:	b9 00 00 00 00       	mov    $0x0,%ecx
  402237:	eb 05                	jmp    40223e <done4>

0000000000402239 <aligned4>:
  402239:	b9 01 00 00 00       	mov    $0x1,%ecx

000000000040223e <done4>:
  40223e:	85 c9                	test   %ecx,%ecx
  402240:	75 23                	jne    402265 <done4+0x27>
  402242:	48 83 ec 08          	sub    $0x8,%rsp
  402246:	48 8d 35 8b 21 00 00 	lea    0x218b(%rip),%rsi        # 4043d8 <_IO_stdin_used+0x3d8>
  40224d:	bf 01 00 00 00       	mov    $0x1,%edi
  402252:	b8 00 00 00 00       	mov    $0x0,%eax
  402257:	e8 64 f1 ff ff       	call   4013c0 <__printf_chk@plt>
  40225c:	48 83 c4 08          	add    $0x8,%rsp
  402260:	48 83 c4 08          	add    $0x8,%rsp
  402264:	c3                   	ret    
  402265:	48 8d 35 6c 21 00 00 	lea    0x216c(%rip),%rsi        # 4043d8 <_IO_stdin_used+0x3d8>
  40226c:	bf 01 00 00 00       	mov    $0x1,%edi
  402271:	b8 00 00 00 00       	mov    $0x0,%eax
  402276:	e8 45 f1 ff ff       	call   4013c0 <__printf_chk@plt>
  40227b:	eb e3                	jmp    402260 <done4+0x22>

000000000040227d <test2>:
  40227d:	f3 0f 1e fa          	endbr64 
  402281:	48 83 ec 08          	sub    $0x8,%rsp
  402285:	b8 00 00 00 00       	mov    $0x0,%eax
  40228a:	e8 07 fd ff ff       	call   401f96 <getbuf_withcanary>
  40228f:	89 c2                	mov    %eax,%edx
  402291:	48 8d 35 68 21 00 00 	lea    0x2168(%rip),%rsi        # 404400 <_IO_stdin_used+0x400>
  402298:	bf 01 00 00 00       	mov    $0x1,%edi
  40229d:	b8 00 00 00 00       	mov    $0x0,%eax
  4022a2:	e8 19 f1 ff ff       	call   4013c0 <__printf_chk@plt>
  4022a7:	48 83 c4 08          	add    $0x8,%rsp
  4022ab:	c3                   	ret    

00000000004022ac <save_char>:
  4022ac:	8b 05 92 5e 00 00    	mov    0x5e92(%rip),%eax        # 408144 <gets_cnt>
  4022b2:	3d ff 03 00 00       	cmp    $0x3ff,%eax
  4022b7:	7f 4a                	jg     402303 <save_char+0x57>
  4022b9:	89 f9                	mov    %edi,%ecx
  4022bb:	c0 e9 04             	shr    $0x4,%cl
  4022be:	8d 14 40             	lea    (%rax,%rax,2),%edx
  4022c1:	4c 8d 05 a8 24 00 00 	lea    0x24a8(%rip),%r8        # 404770 <trans_char>
  4022c8:	83 e1 0f             	and    $0xf,%ecx
  4022cb:	45 0f b6 0c 08       	movzbl (%r8,%rcx,1),%r9d
  4022d0:	48 8d 0d 69 52 00 00 	lea    0x5269(%rip),%rcx        # 407540 <gets_buf>
  4022d7:	48 63 f2             	movslq %edx,%rsi
  4022da:	44 88 0c 31          	mov    %r9b,(%rcx,%rsi,1)
  4022de:	8d 72 01             	lea    0x1(%rdx),%esi
  4022e1:	83 e7 0f             	and    $0xf,%edi
  4022e4:	41 0f b6 3c 38       	movzbl (%r8,%rdi,1),%edi
  4022e9:	48 63 f6             	movslq %esi,%rsi
  4022ec:	40 88 3c 31          	mov    %dil,(%rcx,%rsi,1)
  4022f0:	83 c2 02             	add    $0x2,%edx
  4022f3:	48 63 d2             	movslq %edx,%rdx
  4022f6:	c6 04 11 20          	movb   $0x20,(%rcx,%rdx,1)
  4022fa:	83 c0 01             	add    $0x1,%eax
  4022fd:	89 05 41 5e 00 00    	mov    %eax,0x5e41(%rip)        # 408144 <gets_cnt>
  402303:	c3                   	ret    

0000000000402304 <save_term>:
  402304:	8b 05 3a 5e 00 00    	mov    0x5e3a(%rip),%eax        # 408144 <gets_cnt>
  40230a:	8d 04 40             	lea    (%rax,%rax,2),%eax
  40230d:	48 98                	cltq   
  40230f:	48 8d 15 2a 52 00 00 	lea    0x522a(%rip),%rdx        # 407540 <gets_buf>
  402316:	c6 04 02 00          	movb   $0x0,(%rdx,%rax,1)
  40231a:	c3                   	ret    

000000000040231b <check_fail>:
  40231b:	f3 0f 1e fa          	endbr64 
  40231f:	50                   	push   %rax
  402320:	58                   	pop    %rax
  402321:	48 83 ec 08          	sub    $0x8,%rsp
  402325:	0f be 15 1c 5e 00 00 	movsbl 0x5e1c(%rip),%edx        # 408148 <target_prefix>
  40232c:	4c 8d 05 0d 52 00 00 	lea    0x520d(%rip),%r8        # 407540 <gets_buf>
  402333:	8b 0d df 51 00 00    	mov    0x51df(%rip),%ecx        # 407518 <check_level>
  402339:	48 8d 35 ee 20 00 00 	lea    0x20ee(%rip),%rsi        # 40442e <_IO_stdin_used+0x42e>
  402340:	bf 01 00 00 00       	mov    $0x1,%edi
  402345:	b8 00 00 00 00       	mov    $0x0,%eax
  40234a:	e8 71 f0 ff ff       	call   4013c0 <__printf_chk@plt>
  40234f:	bf 01 00 00 00       	mov    $0x1,%edi
  402354:	e8 b7 f0 ff ff       	call   401410 <exit@plt>

0000000000402359 <Gets>:
  402359:	f3 0f 1e fa          	endbr64 
  40235d:	41 54                	push   %r12
  40235f:	55                   	push   %rbp
  402360:	53                   	push   %rbx
  402361:	49 89 fc             	mov    %rdi,%r12
  402364:	c7 05 d6 5d 00 00 00 	movl   $0x0,0x5dd6(%rip)        # 408144 <gets_cnt>
  40236b:	00 00 00 
  40236e:	48 89 fb             	mov    %rdi,%rbx
  402371:	48 8b 3d 98 51 00 00 	mov    0x5198(%rip),%rdi        # 407510 <infile>
  402378:	e8 c3 f0 ff ff       	call   401440 <getc@plt>
  40237d:	83 f8 ff             	cmp    $0xffffffff,%eax
  402380:	74 18                	je     40239a <Gets+0x41>
  402382:	83 f8 0a             	cmp    $0xa,%eax
  402385:	74 13                	je     40239a <Gets+0x41>
  402387:	48 8d 6b 01          	lea    0x1(%rbx),%rbp
  40238b:	88 03                	mov    %al,(%rbx)
  40238d:	0f b6 f8             	movzbl %al,%edi
  402390:	e8 17 ff ff ff       	call   4022ac <save_char>
  402395:	48 89 eb             	mov    %rbp,%rbx
  402398:	eb d7                	jmp    402371 <Gets+0x18>
  40239a:	c6 03 00             	movb   $0x0,(%rbx)
  40239d:	b8 00 00 00 00       	mov    $0x0,%eax
  4023a2:	e8 5d ff ff ff       	call   402304 <save_term>
  4023a7:	4c 89 e0             	mov    %r12,%rax
  4023aa:	5b                   	pop    %rbx
  4023ab:	5d                   	pop    %rbp
  4023ac:	41 5c                	pop    %r12
  4023ae:	c3                   	ret    

00000000004023af <notify_server>:
  4023af:	f3 0f 1e fa          	endbr64 
  4023b3:	55                   	push   %rbp
  4023b4:	53                   	push   %rbx
  4023b5:	4c 8d 9c 24 00 c0 ff 	lea    -0x4000(%rsp),%r11
  4023bc:	ff 
  4023bd:	48 81 ec 00 10 00 00 	sub    $0x1000,%rsp
  4023c4:	48 83 0c 24 00       	orq    $0x0,(%rsp)
  4023c9:	4c 39 dc             	cmp    %r11,%rsp
  4023cc:	75 ef                	jne    4023bd <notify_server+0xe>
  4023ce:	48 83 ec 18          	sub    $0x18,%rsp
  4023d2:	64 48 8b 04 25 28 00 	mov    %fs:0x28,%rax
  4023d9:	00 00 
  4023db:	48 89 84 24 08 40 00 	mov    %rax,0x4008(%rsp)
  4023e2:	00 
  4023e3:	31 c0                	xor    %eax,%eax
  4023e5:	83 3d 3c 51 00 00 00 	cmpl   $0x0,0x513c(%rip)        # 407528 <is_checker>
  4023ec:	0f 85 b7 01 00 00    	jne    4025a9 <notify_server+0x1fa>
  4023f2:	89 fb                	mov    %edi,%ebx
  4023f4:	81 3d 46 5d 00 00 9c 	cmpl   $0x1f9c,0x5d46(%rip)        # 408144 <gets_cnt>
  4023fb:	1f 00 00 
  4023fe:	7f 18                	jg     402418 <notify_server+0x69>
  402400:	0f be 05 41 5d 00 00 	movsbl 0x5d41(%rip),%eax        # 408148 <target_prefix>
  402407:	83 3d 92 50 00 00 00 	cmpl   $0x0,0x5092(%rip)        # 4074a0 <notify>
  40240e:	74 23                	je     402433 <notify_server+0x84>
  402410:	8b 15 0a 51 00 00    	mov    0x510a(%rip),%edx        # 407520 <authkey>
  402416:	eb 20                	jmp    402438 <notify_server+0x89>
  402418:	48 8d 35 39 21 00 00 	lea    0x2139(%rip),%rsi        # 404558 <_IO_stdin_used+0x558>
  40241f:	bf 01 00 00 00       	mov    $0x1,%edi
  402424:	e8 97 ef ff ff       	call   4013c0 <__printf_chk@plt>
  402429:	bf 01 00 00 00       	mov    $0x1,%edi
  40242e:	e8 dd ef ff ff       	call   401410 <exit@plt>
  402433:	ba ff ff ff ff       	mov    $0xffffffff,%edx
  402438:	85 db                	test   %ebx,%ebx
  40243a:	0f 84 9b 00 00 00    	je     4024db <notify_server+0x12c>
  402440:	48 8d 2d 02 20 00 00 	lea    0x2002(%rip),%rbp        # 404449 <_IO_stdin_used+0x449>
  402447:	48 89 e7             	mov    %rsp,%rdi
  40244a:	48 8d 0d ef 50 00 00 	lea    0x50ef(%rip),%rcx        # 407540 <gets_buf>
  402451:	51                   	push   %rcx
  402452:	56                   	push   %rsi
  402453:	50                   	push   %rax
  402454:	52                   	push   %rdx
  402455:	49 89 e9             	mov    %rbp,%r9
  402458:	44 8b 05 f1 4c 00 00 	mov    0x4cf1(%rip),%r8d        # 407150 <target_id>
  40245f:	48 8d 0d e8 1f 00 00 	lea    0x1fe8(%rip),%rcx        # 40444e <_IO_stdin_used+0x44e>
  402466:	ba 00 20 00 00       	mov    $0x2000,%edx
  40246b:	be 01 00 00 00       	mov    $0x1,%esi
  402470:	b8 00 00 00 00       	mov    $0x0,%eax
  402475:	e8 d6 ef ff ff       	call   401450 <__sprintf_chk@plt>
  40247a:	48 83 c4 20          	add    $0x20,%rsp
  40247e:	83 3d 1b 50 00 00 00 	cmpl   $0x0,0x501b(%rip)        # 4074a0 <notify>
  402485:	0f 84 95 00 00 00    	je     402520 <notify_server+0x171>
  40248b:	48 89 e1             	mov    %rsp,%rcx
  40248e:	4c 8d 8c 24 00 20 00 	lea    0x2000(%rsp),%r9
  402495:	00 
  402496:	41 b8 00 00 00 00    	mov    $0x0,%r8d
  40249c:	48 8b 15 c5 4c 00 00 	mov    0x4cc5(%rip),%rdx        # 407168 <lab>
  4024a3:	48 8b 35 c6 4c 00 00 	mov    0x4cc6(%rip),%rsi        # 407170 <course>
  4024aa:	48 8b 3d af 4c 00 00 	mov    0x4caf(%rip),%rdi        # 407160 <user_id>
  4024b1:	e8 75 12 00 00       	call   40372b <driver_post>
  4024b6:	85 c0                	test   %eax,%eax
  4024b8:	78 2d                	js     4024e7 <notify_server+0x138>
  4024ba:	85 db                	test   %ebx,%ebx
  4024bc:	74 51                	je     40250f <notify_server+0x160>
  4024be:	48 8d 3d c3 20 00 00 	lea    0x20c3(%rip),%rdi        # 404588 <_IO_stdin_used+0x588>
  4024c5:	e8 e6 ed ff ff       	call   4012b0 <puts@plt>
  4024ca:	48 8d 3d a5 1f 00 00 	lea    0x1fa5(%rip),%rdi        # 404476 <_IO_stdin_used+0x476>
  4024d1:	e8 da ed ff ff       	call   4012b0 <puts@plt>
  4024d6:	e9 ce 00 00 00       	jmp    4025a9 <notify_server+0x1fa>
  4024db:	48 8d 2d 62 1f 00 00 	lea    0x1f62(%rip),%rbp        # 404444 <_IO_stdin_used+0x444>
  4024e2:	e9 60 ff ff ff       	jmp    402447 <notify_server+0x98>
  4024e7:	48 8d 94 24 00 20 00 	lea    0x2000(%rsp),%rdx
  4024ee:	00 
  4024ef:	48 8d 35 74 1f 00 00 	lea    0x1f74(%rip),%rsi        # 40446a <_IO_stdin_used+0x46a>
  4024f6:	bf 01 00 00 00       	mov    $0x1,%edi
  4024fb:	b8 00 00 00 00       	mov    $0x0,%eax
  402500:	e8 bb ee ff ff       	call   4013c0 <__printf_chk@plt>
  402505:	bf 01 00 00 00       	mov    $0x1,%edi
  40250a:	e8 01 ef ff ff       	call   401410 <exit@plt>
  40250f:	48 8d 3d 6a 1f 00 00 	lea    0x1f6a(%rip),%rdi        # 404480 <_IO_stdin_used+0x480>
  402516:	e8 95 ed ff ff       	call   4012b0 <puts@plt>
  40251b:	e9 89 00 00 00       	jmp    4025a9 <notify_server+0x1fa>
  402520:	48 89 ea             	mov    %rbp,%rdx
  402523:	48 8d 35 96 20 00 00 	lea    0x2096(%rip),%rsi        # 4045c0 <_IO_stdin_used+0x5c0>
  40252a:	bf 01 00 00 00       	mov    $0x1,%edi
  40252f:	b8 00 00 00 00       	mov    $0x0,%eax
  402534:	e8 87 ee ff ff       	call   4013c0 <__printf_chk@plt>
  402539:	48 8b 15 20 4c 00 00 	mov    0x4c20(%rip),%rdx        # 407160 <user_id>
  402540:	48 8d 35 40 1f 00 00 	lea    0x1f40(%rip),%rsi        # 404487 <_IO_stdin_used+0x487>
  402547:	bf 01 00 00 00       	mov    $0x1,%edi
  40254c:	b8 00 00 00 00       	mov    $0x0,%eax
  402551:	e8 6a ee ff ff       	call   4013c0 <__printf_chk@plt>
  402556:	48 8b 15 13 4c 00 00 	mov    0x4c13(%rip),%rdx        # 407170 <course>
  40255d:	48 8d 35 30 1f 00 00 	lea    0x1f30(%rip),%rsi        # 404494 <_IO_stdin_used+0x494>
  402564:	bf 01 00 00 00       	mov    $0x1,%edi
  402569:	b8 00 00 00 00       	mov    $0x0,%eax
  40256e:	e8 4d ee ff ff       	call   4013c0 <__printf_chk@plt>
  402573:	48 8b 15 ee 4b 00 00 	mov    0x4bee(%rip),%rdx        # 407168 <lab>
  40257a:	48 8d 35 1f 1f 00 00 	lea    0x1f1f(%rip),%rsi        # 4044a0 <_IO_stdin_used+0x4a0>
  402581:	bf 01 00 00 00       	mov    $0x1,%edi
  402586:	b8 00 00 00 00       	mov    $0x0,%eax
  40258b:	e8 30 ee ff ff       	call   4013c0 <__printf_chk@plt>
  402590:	48 89 e2             	mov    %rsp,%rdx
  402593:	48 8d 35 0f 1f 00 00 	lea    0x1f0f(%rip),%rsi        # 4044a9 <_IO_stdin_used+0x4a9>
  40259a:	bf 01 00 00 00       	mov    $0x1,%edi
  40259f:	b8 00 00 00 00       	mov    $0x0,%eax
  4025a4:	e8 17 ee ff ff       	call   4013c0 <__printf_chk@plt>
  4025a9:	48 8b 84 24 08 40 00 	mov    0x4008(%rsp),%rax
  4025b0:	00 
  4025b1:	64 48 33 04 25 28 00 	xor    %fs:0x28,%rax
  4025b8:	00 00 
  4025ba:	75 0a                	jne    4025c6 <notify_server+0x217>
  4025bc:	48 81 c4 18 40 00 00 	add    $0x4018,%rsp
  4025c3:	5b                   	pop    %rbx
  4025c4:	5d                   	pop    %rbp
  4025c5:	c3                   	ret    
  4025c6:	e8 72 02 00 00       	call   40283d <__stack_chk_fail>

00000000004025cb <validate>:
  4025cb:	f3 0f 1e fa          	endbr64 
  4025cf:	53                   	push   %rbx
  4025d0:	89 fb                	mov    %edi,%ebx
  4025d2:	83 3d 4f 4f 00 00 00 	cmpl   $0x0,0x4f4f(%rip)        # 407528 <is_checker>
  4025d9:	74 79                	je     402654 <validate+0x89>
  4025db:	39 3d 3b 4f 00 00    	cmp    %edi,0x4f3b(%rip)        # 40751c <vlevel>
  4025e1:	75 39                	jne    40261c <validate+0x51>
  4025e3:	8b 15 2f 4f 00 00    	mov    0x4f2f(%rip),%edx        # 407518 <check_level>
  4025e9:	39 fa                	cmp    %edi,%edx
  4025eb:	75 45                	jne    402632 <validate+0x67>
  4025ed:	0f be 0d 54 5b 00 00 	movsbl 0x5b54(%rip),%ecx        # 408148 <target_prefix>
  4025f4:	4c 8d 0d 45 4f 00 00 	lea    0x4f45(%rip),%r9        # 407540 <gets_buf>
  4025fb:	41 89 f8             	mov    %edi,%r8d
  4025fe:	8b 15 1c 4f 00 00    	mov    0x4f1c(%rip),%edx        # 407520 <authkey>
  402604:	48 8d 35 05 20 00 00 	lea    0x2005(%rip),%rsi        # 404610 <_IO_stdin_used+0x610>
  40260b:	bf 01 00 00 00       	mov    $0x1,%edi
  402610:	b8 00 00 00 00       	mov    $0x0,%eax
  402615:	e8 a6 ed ff ff       	call   4013c0 <__printf_chk@plt>
  40261a:	5b                   	pop    %rbx
  40261b:	c3                   	ret    
  40261c:	48 8d 3d 92 1e 00 00 	lea    0x1e92(%rip),%rdi        # 4044b5 <_IO_stdin_used+0x4b5>
  402623:	e8 88 ec ff ff       	call   4012b0 <puts@plt>
  402628:	b8 00 00 00 00       	mov    $0x0,%eax
  40262d:	e8 e9 fc ff ff       	call   40231b <check_fail>
  402632:	89 f9                	mov    %edi,%ecx
  402634:	48 8d 35 ad 1f 00 00 	lea    0x1fad(%rip),%rsi        # 4045e8 <_IO_stdin_used+0x5e8>
  40263b:	bf 01 00 00 00       	mov    $0x1,%edi
  402640:	b8 00 00 00 00       	mov    $0x0,%eax
  402645:	e8 76 ed ff ff       	call   4013c0 <__printf_chk@plt>
  40264a:	b8 00 00 00 00       	mov    $0x0,%eax
  40264f:	e8 c7 fc ff ff       	call   40231b <check_fail>
  402654:	39 3d c2 4e 00 00    	cmp    %edi,0x4ec2(%rip)        # 40751c <vlevel>
  40265a:	74 1a                	je     402676 <validate+0xab>
  40265c:	48 8d 3d 52 1e 00 00 	lea    0x1e52(%rip),%rdi        # 4044b5 <_IO_stdin_used+0x4b5>
  402663:	e8 48 ec ff ff       	call   4012b0 <puts@plt>
  402668:	89 de                	mov    %ebx,%esi
  40266a:	bf 00 00 00 00       	mov    $0x0,%edi
  40266f:	e8 3b fd ff ff       	call   4023af <notify_server>
  402674:	eb a4                	jmp    40261a <validate+0x4f>
  402676:	0f be 0d cb 5a 00 00 	movsbl 0x5acb(%rip),%ecx        # 408148 <target_prefix>
  40267d:	89 fa                	mov    %edi,%edx
  40267f:	48 8d 35 b2 1f 00 00 	lea    0x1fb2(%rip),%rsi        # 404638 <_IO_stdin_used+0x638>
  402686:	bf 01 00 00 00       	mov    $0x1,%edi
  40268b:	b8 00 00 00 00       	mov    $0x0,%eax
  402690:	e8 2b ed ff ff       	call   4013c0 <__printf_chk@plt>
  402695:	89 de                	mov    %ebx,%esi
  402697:	bf 01 00 00 00       	mov    $0x1,%edi
  40269c:	e8 0e fd ff ff       	call   4023af <notify_server>
  4026a1:	e9 74 ff ff ff       	jmp    40261a <validate+0x4f>

00000000004026a6 <fail>:
  4026a6:	f3 0f 1e fa          	endbr64 
  4026aa:	48 83 ec 08          	sub    $0x8,%rsp
  4026ae:	83 3d 73 4e 00 00 00 	cmpl   $0x0,0x4e73(%rip)        # 407528 <is_checker>
  4026b5:	75 11                	jne    4026c8 <fail+0x22>
  4026b7:	89 fe                	mov    %edi,%esi
  4026b9:	bf 00 00 00 00       	mov    $0x0,%edi
  4026be:	e8 ec fc ff ff       	call   4023af <notify_server>
  4026c3:	48 83 c4 08          	add    $0x8,%rsp
  4026c7:	c3                   	ret    
  4026c8:	b8 00 00 00 00       	mov    $0x0,%eax
  4026cd:	e8 49 fc ff ff       	call   40231b <check_fail>

00000000004026d2 <bushandler>:
  4026d2:	f3 0f 1e fa          	endbr64 
  4026d6:	50                   	push   %rax
  4026d7:	58                   	pop    %rax
  4026d8:	48 83 ec 08          	sub    $0x8,%rsp
  4026dc:	83 3d 45 4e 00 00 00 	cmpl   $0x0,0x4e45(%rip)        # 407528 <is_checker>
  4026e3:	74 16                	je     4026fb <bushandler+0x29>
  4026e5:	48 8d 3d e7 1d 00 00 	lea    0x1de7(%rip),%rdi        # 4044d3 <_IO_stdin_used+0x4d3>
  4026ec:	e8 bf eb ff ff       	call   4012b0 <puts@plt>
  4026f1:	b8 00 00 00 00       	mov    $0x0,%eax
  4026f6:	e8 20 fc ff ff       	call   40231b <check_fail>
  4026fb:	48 8d 3d 6e 1f 00 00 	lea    0x1f6e(%rip),%rdi        # 404670 <_IO_stdin_used+0x670>
  402702:	e8 a9 eb ff ff       	call   4012b0 <puts@plt>
  402707:	48 8d 3d cf 1d 00 00 	lea    0x1dcf(%rip),%rdi        # 4044dd <_IO_stdin_used+0x4dd>
  40270e:	e8 9d eb ff ff       	call   4012b0 <puts@plt>
  402713:	be 00 00 00 00       	mov    $0x0,%esi
  402718:	bf 00 00 00 00       	mov    $0x0,%edi
  40271d:	e8 8d fc ff ff       	call   4023af <notify_server>
  402722:	bf 01 00 00 00       	mov    $0x1,%edi
  402727:	e8 e4 ec ff ff       	call   401410 <exit@plt>

000000000040272c <seghandler>:
  40272c:	f3 0f 1e fa          	endbr64 
  402730:	50                   	push   %rax
  402731:	58                   	pop    %rax
  402732:	48 83 ec 08          	sub    $0x8,%rsp
  402736:	83 3d eb 4d 00 00 00 	cmpl   $0x0,0x4deb(%rip)        # 407528 <is_checker>
  40273d:	74 16                	je     402755 <seghandler+0x29>
  40273f:	48 8d 3d ad 1d 00 00 	lea    0x1dad(%rip),%rdi        # 4044f3 <_IO_stdin_used+0x4f3>
  402746:	e8 65 eb ff ff       	call   4012b0 <puts@plt>
  40274b:	b8 00 00 00 00       	mov    $0x0,%eax
  402750:	e8 c6 fb ff ff       	call   40231b <check_fail>
  402755:	48 8d 3d 34 1f 00 00 	lea    0x1f34(%rip),%rdi        # 404690 <_IO_stdin_used+0x690>
  40275c:	e8 4f eb ff ff       	call   4012b0 <puts@plt>
  402761:	48 8d 3d 75 1d 00 00 	lea    0x1d75(%rip),%rdi        # 4044dd <_IO_stdin_used+0x4dd>
  402768:	e8 43 eb ff ff       	call   4012b0 <puts@plt>
  40276d:	be 00 00 00 00       	mov    $0x0,%esi
  402772:	bf 00 00 00 00       	mov    $0x0,%edi
  402777:	e8 33 fc ff ff       	call   4023af <notify_server>
  40277c:	bf 01 00 00 00       	mov    $0x1,%edi
  402781:	e8 8a ec ff ff       	call   401410 <exit@plt>

0000000000402786 <illegalhandler>:
  402786:	f3 0f 1e fa          	endbr64 
  40278a:	50                   	push   %rax
  40278b:	58                   	pop    %rax
  40278c:	48 83 ec 08          	sub    $0x8,%rsp
  402790:	83 3d 91 4d 00 00 00 	cmpl   $0x0,0x4d91(%rip)        # 407528 <is_checker>
  402797:	74 16                	je     4027af <illegalhandler+0x29>
  402799:	48 8d 3d 66 1d 00 00 	lea    0x1d66(%rip),%rdi        # 404506 <_IO_stdin_used+0x506>
  4027a0:	e8 0b eb ff ff       	call   4012b0 <puts@plt>
  4027a5:	b8 00 00 00 00       	mov    $0x0,%eax
  4027aa:	e8 6c fb ff ff       	call   40231b <check_fail>
  4027af:	48 8d 3d 02 1f 00 00 	lea    0x1f02(%rip),%rdi        # 4046b8 <_IO_stdin_used+0x6b8>
  4027b6:	e8 f5 ea ff ff       	call   4012b0 <puts@plt>
  4027bb:	48 8d 3d 1b 1d 00 00 	lea    0x1d1b(%rip),%rdi        # 4044dd <_IO_stdin_used+0x4dd>
  4027c2:	e8 e9 ea ff ff       	call   4012b0 <puts@plt>
  4027c7:	be 00 00 00 00       	mov    $0x0,%esi
  4027cc:	bf 00 00 00 00       	mov    $0x0,%edi
  4027d1:	e8 d9 fb ff ff       	call   4023af <notify_server>
  4027d6:	bf 01 00 00 00       	mov    $0x1,%edi
  4027db:	e8 30 ec ff ff       	call   401410 <exit@plt>

00000000004027e0 <sigalrmhandler>:
  4027e0:	f3 0f 1e fa          	endbr64 
  4027e4:	50                   	push   %rax
  4027e5:	58                   	pop    %rax
  4027e6:	48 83 ec 08          	sub    $0x8,%rsp
  4027ea:	83 3d 37 4d 00 00 00 	cmpl   $0x0,0x4d37(%rip)        # 407528 <is_checker>
  4027f1:	74 16                	je     402809 <sigalrmhandler+0x29>
  4027f3:	48 8d 3d 20 1d 00 00 	lea    0x1d20(%rip),%rdi        # 40451a <_IO_stdin_used+0x51a>
  4027fa:	e8 b1 ea ff ff       	call   4012b0 <puts@plt>
  4027ff:	b8 00 00 00 00       	mov    $0x0,%eax
  402804:	e8 12 fb ff ff       	call   40231b <check_fail>
  402809:	ba 02 00 00 00       	mov    $0x2,%edx
  40280e:	48 8d 35 d3 1e 00 00 	lea    0x1ed3(%rip),%rsi        # 4046e8 <_IO_stdin_used+0x6e8>
  402815:	bf 01 00 00 00       	mov    $0x1,%edi
  40281a:	b8 00 00 00 00       	mov    $0x0,%eax
  40281f:	e8 9c eb ff ff       	call   4013c0 <__printf_chk@plt>
  402824:	be 00 00 00 00       	mov    $0x0,%esi
  402829:	bf 00 00 00 00       	mov    $0x0,%edi
  40282e:	e8 7c fb ff ff       	call   4023af <notify_server>
  402833:	bf 01 00 00 00       	mov    $0x1,%edi
  402838:	e8 d3 eb ff ff       	call   401410 <exit@plt>

000000000040283d <__stack_chk_fail>:
  40283d:	f3 0f 1e fa          	endbr64 
  402841:	50                   	push   %rax
  402842:	58                   	pop    %rax
  402843:	48 83 ec 08          	sub    $0x8,%rsp
  402847:	83 3d da 4c 00 00 00 	cmpl   $0x0,0x4cda(%rip)        # 407528 <is_checker>
  40284e:	74 16                	je     402866 <__stack_chk_fail+0x29>
  402850:	48 8d 3d cb 1c 00 00 	lea    0x1ccb(%rip),%rdi        # 404522 <_IO_stdin_used+0x522>
  402857:	e8 54 ea ff ff       	call   4012b0 <puts@plt>
  40285c:	b8 00 00 00 00       	mov    $0x0,%eax
  402861:	e8 b5 fa ff ff       	call   40231b <check_fail>
  402866:	48 8d 3d b3 1e 00 00 	lea    0x1eb3(%rip),%rdi        # 404720 <_IO_stdin_used+0x720>
  40286d:	e8 3e ea ff ff       	call   4012b0 <puts@plt>
  402872:	48 8d 3d 64 1c 00 00 	lea    0x1c64(%rip),%rdi        # 4044dd <_IO_stdin_used+0x4dd>
  402879:	e8 32 ea ff ff       	call   4012b0 <puts@plt>
  40287e:	be 00 00 00 00       	mov    $0x0,%esi
  402883:	bf 00 00 00 00       	mov    $0x0,%edi
  402888:	e8 22 fb ff ff       	call   4023af <notify_server>
  40288d:	bf 01 00 00 00       	mov    $0x1,%edi
  402892:	e8 79 eb ff ff       	call   401410 <exit@plt>

0000000000402897 <launch>:
  402897:	f3 0f 1e fa          	endbr64 
  40289b:	55                   	push   %rbp
  40289c:	48 89 e5             	mov    %rsp,%rbp
  40289f:	53                   	push   %rbx
  4028a0:	48 83 ec 18          	sub    $0x18,%rsp
  4028a4:	48 89 fa             	mov    %rdi,%rdx
  4028a7:	89 f3                	mov    %esi,%ebx
  4028a9:	64 48 8b 04 25 28 00 	mov    %fs:0x28,%rax
  4028b0:	00 00 
  4028b2:	48 89 45 e8          	mov    %rax,-0x18(%rbp)
  4028b6:	31 c0                	xor    %eax,%eax
  4028b8:	48 8d 47 17          	lea    0x17(%rdi),%rax
  4028bc:	48 89 c1             	mov    %rax,%rcx
  4028bf:	48 83 e1 f0          	and    $0xfffffffffffffff0,%rcx
  4028c3:	48 25 00 f0 ff ff    	and    $0xfffffffffffff000,%rax
  4028c9:	48 89 e6             	mov    %rsp,%rsi
  4028cc:	48 29 c6             	sub    %rax,%rsi
  4028cf:	48 89 f0             	mov    %rsi,%rax
  4028d2:	48 39 c4             	cmp    %rax,%rsp
  4028d5:	74 12                	je     4028e9 <launch+0x52>
  4028d7:	48 81 ec 00 10 00 00 	sub    $0x1000,%rsp
  4028de:	48 83 8c 24 f8 0f 00 	orq    $0x0,0xff8(%rsp)
  4028e5:	00 00 
  4028e7:	eb e9                	jmp    4028d2 <launch+0x3b>
  4028e9:	48 89 c8             	mov    %rcx,%rax
  4028ec:	25 ff 0f 00 00       	and    $0xfff,%eax
  4028f1:	48 29 c4             	sub    %rax,%rsp
  4028f4:	48 85 c0             	test   %rax,%rax
  4028f7:	74 06                	je     4028ff <launch+0x68>
  4028f9:	48 83 4c 04 f8 00    	orq    $0x0,-0x8(%rsp,%rax,1)
  4028ff:	48 8d 7c 24 0f       	lea    0xf(%rsp),%rdi
  402904:	48 83 e7 f0          	and    $0xfffffffffffffff0,%rdi
  402908:	be f4 00 00 00       	mov    $0xf4,%esi
  40290d:	e8 ce e9 ff ff       	call   4012e0 <memset@plt>
  402912:	48 8b 05 a7 4b 00 00 	mov    0x4ba7(%rip),%rax        # 4074c0 <stdin@GLIBC_2.2.5>
  402919:	48 39 05 f0 4b 00 00 	cmp    %rax,0x4bf0(%rip)        # 407510 <infile>
  402920:	74 42                	je     402964 <launch+0xcd>
  402922:	c7 05 f0 4b 00 00 00 	movl   $0x0,0x4bf0(%rip)        # 40751c <vlevel>
  402929:	00 00 00 
  40292c:	85 db                	test   %ebx,%ebx
  40292e:	75 42                	jne    402972 <launch+0xdb>
  402930:	b8 00 00 00 00       	mov    $0x0,%eax
  402935:	e8 db f8 ff ff       	call   402215 <test>
  40293a:	83 3d e7 4b 00 00 00 	cmpl   $0x0,0x4be7(%rip)        # 407528 <is_checker>
  402941:	75 3b                	jne    40297e <launch+0xe7>
  402943:	48 8d 3d ff 1b 00 00 	lea    0x1bff(%rip),%rdi        # 404549 <_IO_stdin_used+0x549>
  40294a:	e8 61 e9 ff ff       	call   4012b0 <puts@plt>
  40294f:	48 8b 45 e8          	mov    -0x18(%rbp),%rax
  402953:	64 48 33 04 25 28 00 	xor    %fs:0x28,%rax
  40295a:	00 00 
  40295c:	75 36                	jne    402994 <launch+0xfd>
  40295e:	48 8b 5d f8          	mov    -0x8(%rbp),%rbx
  402962:	c9                   	leave  
  402963:	c3                   	ret    
  402964:	48 8d 3d c6 1b 00 00 	lea    0x1bc6(%rip),%rdi        # 404531 <_IO_stdin_used+0x531>
  40296b:	e8 40 e9 ff ff       	call   4012b0 <puts@plt>
  402970:	eb b0                	jmp    402922 <launch+0x8b>
  402972:	b8 00 00 00 00       	mov    $0x0,%eax
  402977:	e8 01 f9 ff ff       	call   40227d <test2>
  40297c:	eb bc                	jmp    40293a <launch+0xa3>
  40297e:	48 8d 3d b9 1b 00 00 	lea    0x1bb9(%rip),%rdi        # 40453e <_IO_stdin_used+0x53e>
  402985:	e8 26 e9 ff ff       	call   4012b0 <puts@plt>
  40298a:	b8 00 00 00 00       	mov    $0x0,%eax
  40298f:	e8 87 f9 ff ff       	call   40231b <check_fail>
  402994:	e8 a4 fe ff ff       	call   40283d <__stack_chk_fail>

0000000000402999 <stable_launch>:
  402999:	f3 0f 1e fa          	endbr64 
  40299d:	55                   	push   %rbp
  40299e:	53                   	push   %rbx
  40299f:	48 83 ec 08          	sub    $0x8,%rsp
  4029a3:	89 f5                	mov    %esi,%ebp
  4029a5:	48 89 3d 5c 4b 00 00 	mov    %rdi,0x4b5c(%rip)        # 407508 <global_offset>
  4029ac:	41 b9 00 00 00 00    	mov    $0x0,%r9d
  4029b2:	41 b8 00 00 00 00    	mov    $0x0,%r8d
  4029b8:	b9 32 01 00 00       	mov    $0x132,%ecx
  4029bd:	ba 07 00 00 00       	mov    $0x7,%edx
  4029c2:	be 00 00 10 00       	mov    $0x100000,%esi
  4029c7:	bf 00 60 58 55       	mov    $0x55586000,%edi
  4029cc:	e8 ff e8 ff ff       	call   4012d0 <mmap@plt>
  4029d1:	48 89 c3             	mov    %rax,%rbx
  4029d4:	48 3d 00 60 58 55    	cmp    $0x55586000,%rax
  4029da:	75 4a                	jne    402a26 <stable_launch+0x8d>
  4029dc:	48 8d 90 f8 ff 0f 00 	lea    0xffff8(%rax),%rdx
  4029e3:	48 89 15 66 57 00 00 	mov    %rdx,0x5766(%rip)        # 408150 <stack_top>
  4029ea:	48 89 e0             	mov    %rsp,%rax
  4029ed:	48 89 d4             	mov    %rdx,%rsp
  4029f0:	48 89 c2             	mov    %rax,%rdx
  4029f3:	48 89 15 06 4b 00 00 	mov    %rdx,0x4b06(%rip)        # 407500 <global_save_stack>
  4029fa:	89 ee                	mov    %ebp,%esi
  4029fc:	48 8b 3d 05 4b 00 00 	mov    0x4b05(%rip),%rdi        # 407508 <global_offset>
  402a03:	e8 8f fe ff ff       	call   402897 <launch>
  402a08:	48 8b 05 f1 4a 00 00 	mov    0x4af1(%rip),%rax        # 407500 <global_save_stack>
  402a0f:	48 89 c4             	mov    %rax,%rsp
  402a12:	be 00 00 10 00       	mov    $0x100000,%esi
  402a17:	48 89 df             	mov    %rbx,%rdi
  402a1a:	e8 91 e9 ff ff       	call   4013b0 <munmap@plt>
  402a1f:	48 83 c4 08          	add    $0x8,%rsp
  402a23:	5b                   	pop    %rbx
  402a24:	5d                   	pop    %rbp
  402a25:	c3                   	ret    
  402a26:	be 00 00 10 00       	mov    $0x100000,%esi
  402a2b:	48 89 c7             	mov    %rax,%rdi
  402a2e:	e8 7d e9 ff ff       	call   4013b0 <munmap@plt>
  402a33:	b9 00 60 58 55       	mov    $0x55586000,%ecx
  402a38:	48 8d 15 09 1d 00 00 	lea    0x1d09(%rip),%rdx        # 404748 <_IO_stdin_used+0x748>
  402a3f:	be 01 00 00 00       	mov    $0x1,%esi
  402a44:	48 8b 3d 95 4a 00 00 	mov    0x4a95(%rip),%rdi        # 4074e0 <stderr@GLIBC_2.2.5>
  402a4b:	b8 00 00 00 00       	mov    $0x0,%eax
  402a50:	e8 db e9 ff ff       	call   401430 <__fprintf_chk@plt>
  402a55:	bf 01 00 00 00       	mov    $0x1,%edi
  402a5a:	e8 b1 e9 ff ff       	call   401410 <exit@plt>

0000000000402a5f <rio_readinitb>:
  402a5f:	89 37                	mov    %esi,(%rdi)
  402a61:	c7 47 04 00 00 00 00 	movl   $0x0,0x4(%rdi)
  402a68:	48 8d 47 10          	lea    0x10(%rdi),%rax
  402a6c:	48 89 47 08          	mov    %rax,0x8(%rdi)
  402a70:	c3                   	ret    

0000000000402a71 <sigalrm_handler>:
  402a71:	f3 0f 1e fa          	endbr64 
  402a75:	50                   	push   %rax
  402a76:	58                   	pop    %rax
  402a77:	48 83 ec 08          	sub    $0x8,%rsp
  402a7b:	b9 00 00 00 00       	mov    $0x0,%ecx
  402a80:	48 8d 15 f9 1c 00 00 	lea    0x1cf9(%rip),%rdx        # 404780 <trans_char+0x10>
  402a87:	be 01 00 00 00       	mov    $0x1,%esi
  402a8c:	48 8b 3d 4d 4a 00 00 	mov    0x4a4d(%rip),%rdi        # 4074e0 <stderr@GLIBC_2.2.5>
  402a93:	b8 00 00 00 00       	mov    $0x0,%eax
  402a98:	e8 93 e9 ff ff       	call   401430 <__fprintf_chk@plt>
  402a9d:	bf 01 00 00 00       	mov    $0x1,%edi
  402aa2:	e8 69 e9 ff ff       	call   401410 <exit@plt>

0000000000402aa7 <rio_writen>:
  402aa7:	41 55                	push   %r13
  402aa9:	41 54                	push   %r12
  402aab:	55                   	push   %rbp
  402aac:	53                   	push   %rbx
  402aad:	48 83 ec 08          	sub    $0x8,%rsp
  402ab1:	41 89 fc             	mov    %edi,%r12d
  402ab4:	48 89 f5             	mov    %rsi,%rbp
  402ab7:	49 89 d5             	mov    %rdx,%r13
  402aba:	48 89 d3             	mov    %rdx,%rbx
  402abd:	eb 06                	jmp    402ac5 <rio_writen+0x1e>
  402abf:	48 29 c3             	sub    %rax,%rbx
  402ac2:	48 01 c5             	add    %rax,%rbp
  402ac5:	48 85 db             	test   %rbx,%rbx
  402ac8:	74 24                	je     402aee <rio_writen+0x47>
  402aca:	48 89 da             	mov    %rbx,%rdx
  402acd:	48 89 ee             	mov    %rbp,%rsi
  402ad0:	44 89 e7             	mov    %r12d,%edi
  402ad3:	e8 e8 e7 ff ff       	call   4012c0 <write@plt>
  402ad8:	48 85 c0             	test   %rax,%rax
  402adb:	7f e2                	jg     402abf <rio_writen+0x18>
  402add:	e8 7e e7 ff ff       	call   401260 <__errno_location@plt>
  402ae2:	83 38 04             	cmpl   $0x4,(%rax)
  402ae5:	75 15                	jne    402afc <rio_writen+0x55>
  402ae7:	b8 00 00 00 00       	mov    $0x0,%eax
  402aec:	eb d1                	jmp    402abf <rio_writen+0x18>
  402aee:	4c 89 e8             	mov    %r13,%rax
  402af1:	48 83 c4 08          	add    $0x8,%rsp
  402af5:	5b                   	pop    %rbx
  402af6:	5d                   	pop    %rbp
  402af7:	41 5c                	pop    %r12
  402af9:	41 5d                	pop    %r13
  402afb:	c3                   	ret    
  402afc:	48 c7 c0 ff ff ff ff 	mov    $0xffffffffffffffff,%rax
  402b03:	eb ec                	jmp    402af1 <rio_writen+0x4a>

0000000000402b05 <rio_read>:
  402b05:	41 55                	push   %r13
  402b07:	41 54                	push   %r12
  402b09:	55                   	push   %rbp
  402b0a:	53                   	push   %rbx
  402b0b:	48 83 ec 08          	sub    $0x8,%rsp
  402b0f:	48 89 fb             	mov    %rdi,%rbx
  402b12:	49 89 f5             	mov    %rsi,%r13
  402b15:	49 89 d4             	mov    %rdx,%r12
  402b18:	eb 17                	jmp    402b31 <rio_read+0x2c>
  402b1a:	e8 41 e7 ff ff       	call   401260 <__errno_location@plt>
  402b1f:	83 38 04             	cmpl   $0x4,(%rax)
  402b22:	74 0d                	je     402b31 <rio_read+0x2c>
  402b24:	48 c7 c0 ff ff ff ff 	mov    $0xffffffffffffffff,%rax
  402b2b:	eb 54                	jmp    402b81 <rio_read+0x7c>
  402b2d:	48 89 6b 08          	mov    %rbp,0x8(%rbx)
  402b31:	8b 6b 04             	mov    0x4(%rbx),%ebp
  402b34:	85 ed                	test   %ebp,%ebp
  402b36:	7f 23                	jg     402b5b <rio_read+0x56>
  402b38:	48 8d 6b 10          	lea    0x10(%rbx),%rbp
  402b3c:	8b 3b                	mov    (%rbx),%edi
  402b3e:	ba 00 20 00 00       	mov    $0x2000,%edx
  402b43:	48 89 ee             	mov    %rbp,%rsi
  402b46:	e8 c5 e7 ff ff       	call   401310 <read@plt>
  402b4b:	89 43 04             	mov    %eax,0x4(%rbx)
  402b4e:	85 c0                	test   %eax,%eax
  402b50:	78 c8                	js     402b1a <rio_read+0x15>
  402b52:	75 d9                	jne    402b2d <rio_read+0x28>
  402b54:	b8 00 00 00 00       	mov    $0x0,%eax
  402b59:	eb 26                	jmp    402b81 <rio_read+0x7c>
  402b5b:	89 e8                	mov    %ebp,%eax
  402b5d:	4c 39 e0             	cmp    %r12,%rax
  402b60:	72 03                	jb     402b65 <rio_read+0x60>
  402b62:	44 89 e5             	mov    %r12d,%ebp
  402b65:	4c 63 e5             	movslq %ebp,%r12
  402b68:	48 8b 73 08          	mov    0x8(%rbx),%rsi
  402b6c:	4c 89 e2             	mov    %r12,%rdx
  402b6f:	4c 89 ef             	mov    %r13,%rdi
  402b72:	e8 f9 e7 ff ff       	call   401370 <memcpy@plt>
  402b77:	4c 01 63 08          	add    %r12,0x8(%rbx)
  402b7b:	29 6b 04             	sub    %ebp,0x4(%rbx)
  402b7e:	4c 89 e0             	mov    %r12,%rax
  402b81:	48 83 c4 08          	add    $0x8,%rsp
  402b85:	5b                   	pop    %rbx
  402b86:	5d                   	pop    %rbp
  402b87:	41 5c                	pop    %r12
  402b89:	41 5d                	pop    %r13
  402b8b:	c3                   	ret    

0000000000402b8c <rio_readlineb>:
  402b8c:	41 55                	push   %r13
  402b8e:	41 54                	push   %r12
  402b90:	55                   	push   %rbp
  402b91:	53                   	push   %rbx
  402b92:	48 83 ec 18          	sub    $0x18,%rsp
  402b96:	49 89 fd             	mov    %rdi,%r13
  402b99:	48 89 f5             	mov    %rsi,%rbp
  402b9c:	49 89 d4             	mov    %rdx,%r12
  402b9f:	64 48 8b 04 25 28 00 	mov    %fs:0x28,%rax
  402ba6:	00 00 
  402ba8:	48 89 44 24 08       	mov    %rax,0x8(%rsp)
  402bad:	31 c0                	xor    %eax,%eax
  402baf:	bb 01 00 00 00       	mov    $0x1,%ebx
  402bb4:	eb 18                	jmp    402bce <rio_readlineb+0x42>
  402bb6:	85 c0                	test   %eax,%eax
  402bb8:	75 65                	jne    402c1f <rio_readlineb+0x93>
  402bba:	48 83 fb 01          	cmp    $0x1,%rbx
  402bbe:	75 3d                	jne    402bfd <rio_readlineb+0x71>
  402bc0:	b8 00 00 00 00       	mov    $0x0,%eax
  402bc5:	eb 3d                	jmp    402c04 <rio_readlineb+0x78>
  402bc7:	48 83 c3 01          	add    $0x1,%rbx
  402bcb:	48 89 d5             	mov    %rdx,%rbp
  402bce:	4c 39 e3             	cmp    %r12,%rbx
  402bd1:	73 2a                	jae    402bfd <rio_readlineb+0x71>
  402bd3:	48 8d 74 24 07       	lea    0x7(%rsp),%rsi
  402bd8:	ba 01 00 00 00       	mov    $0x1,%edx
  402bdd:	4c 89 ef             	mov    %r13,%rdi
  402be0:	e8 20 ff ff ff       	call   402b05 <rio_read>
  402be5:	83 f8 01             	cmp    $0x1,%eax
  402be8:	75 cc                	jne    402bb6 <rio_readlineb+0x2a>
  402bea:	48 8d 55 01          	lea    0x1(%rbp),%rdx
  402bee:	0f b6 44 24 07       	movzbl 0x7(%rsp),%eax
  402bf3:	88 45 00             	mov    %al,0x0(%rbp)
  402bf6:	3c 0a                	cmp    $0xa,%al
  402bf8:	75 cd                	jne    402bc7 <rio_readlineb+0x3b>
  402bfa:	48 89 d5             	mov    %rdx,%rbp
  402bfd:	c6 45 00 00          	movb   $0x0,0x0(%rbp)
  402c01:	48 89 d8             	mov    %rbx,%rax
  402c04:	48 8b 4c 24 08       	mov    0x8(%rsp),%rcx
  402c09:	64 48 33 0c 25 28 00 	xor    %fs:0x28,%rcx
  402c10:	00 00 
  402c12:	75 14                	jne    402c28 <rio_readlineb+0x9c>
  402c14:	48 83 c4 18          	add    $0x18,%rsp
  402c18:	5b                   	pop    %rbx
  402c19:	5d                   	pop    %rbp
  402c1a:	41 5c                	pop    %r12
  402c1c:	41 5d                	pop    %r13
  402c1e:	c3                   	ret    
  402c1f:	48 c7 c0 ff ff ff ff 	mov    $0xffffffffffffffff,%rax
  402c26:	eb dc                	jmp    402c04 <rio_readlineb+0x78>
  402c28:	e8 10 fc ff ff       	call   40283d <__stack_chk_fail>

0000000000402c2d <urlencode>:
  402c2d:	41 54                	push   %r12
  402c2f:	55                   	push   %rbp
  402c30:	53                   	push   %rbx
  402c31:	48 83 ec 10          	sub    $0x10,%rsp
  402c35:	48 89 fb             	mov    %rdi,%rbx
  402c38:	48 89 f5             	mov    %rsi,%rbp
  402c3b:	64 48 8b 04 25 28 00 	mov    %fs:0x28,%rax
  402c42:	00 00 
  402c44:	48 89 44 24 08       	mov    %rax,0x8(%rsp)
  402c49:	31 c0                	xor    %eax,%eax
  402c4b:	48 c7 c1 ff ff ff ff 	mov    $0xffffffffffffffff,%rcx
  402c52:	f2 ae                	repnz scas %es:(%rdi),%al
  402c54:	48 f7 d1             	not    %rcx
  402c57:	8d 41 ff             	lea    -0x1(%rcx),%eax
  402c5a:	eb 0f                	jmp    402c6b <urlencode+0x3e>
  402c5c:	44 88 45 00          	mov    %r8b,0x0(%rbp)
  402c60:	48 8d 6d 01          	lea    0x1(%rbp),%rbp
  402c64:	48 83 c3 01          	add    $0x1,%rbx
  402c68:	44 89 e0             	mov    %r12d,%eax
  402c6b:	44 8d 60 ff          	lea    -0x1(%rax),%r12d
  402c6f:	85 c0                	test   %eax,%eax
  402c71:	0f 84 a8 00 00 00    	je     402d1f <urlencode+0xf2>
  402c77:	44 0f b6 03          	movzbl (%rbx),%r8d
  402c7b:	41 80 f8 2a          	cmp    $0x2a,%r8b
  402c7f:	0f 94 c2             	sete   %dl
  402c82:	41 80 f8 2d          	cmp    $0x2d,%r8b
  402c86:	0f 94 c0             	sete   %al
  402c89:	08 c2                	or     %al,%dl
  402c8b:	75 cf                	jne    402c5c <urlencode+0x2f>
  402c8d:	41 80 f8 2e          	cmp    $0x2e,%r8b
  402c91:	74 c9                	je     402c5c <urlencode+0x2f>
  402c93:	41 80 f8 5f          	cmp    $0x5f,%r8b
  402c97:	74 c3                	je     402c5c <urlencode+0x2f>
  402c99:	41 8d 40 d0          	lea    -0x30(%r8),%eax
  402c9d:	3c 09                	cmp    $0x9,%al
  402c9f:	76 bb                	jbe    402c5c <urlencode+0x2f>
  402ca1:	41 8d 40 bf          	lea    -0x41(%r8),%eax
  402ca5:	3c 19                	cmp    $0x19,%al
  402ca7:	76 b3                	jbe    402c5c <urlencode+0x2f>
  402ca9:	41 8d 40 9f          	lea    -0x61(%r8),%eax
  402cad:	3c 19                	cmp    $0x19,%al
  402caf:	76 ab                	jbe    402c5c <urlencode+0x2f>
  402cb1:	41 80 f8 20          	cmp    $0x20,%r8b
  402cb5:	74 56                	je     402d0d <urlencode+0xe0>
  402cb7:	41 8d 40 e0          	lea    -0x20(%r8),%eax
  402cbb:	3c 5f                	cmp    $0x5f,%al
  402cbd:	0f 96 c2             	setbe  %dl
  402cc0:	41 80 f8 09          	cmp    $0x9,%r8b
  402cc4:	0f 94 c0             	sete   %al
  402cc7:	08 c2                	or     %al,%dl
  402cc9:	74 4f                	je     402d1a <urlencode+0xed>
  402ccb:	48 89 e7             	mov    %rsp,%rdi
  402cce:	45 0f b6 c0          	movzbl %r8b,%r8d
  402cd2:	48 8d 0d 5c 1b 00 00 	lea    0x1b5c(%rip),%rcx        # 404835 <trans_char+0xc5>
  402cd9:	ba 08 00 00 00       	mov    $0x8,%edx
  402cde:	be 01 00 00 00       	mov    $0x1,%esi
  402ce3:	b8 00 00 00 00       	mov    $0x0,%eax
  402ce8:	e8 63 e7 ff ff       	call   401450 <__sprintf_chk@plt>
  402ced:	0f b6 04 24          	movzbl (%rsp),%eax
  402cf1:	88 45 00             	mov    %al,0x0(%rbp)
  402cf4:	0f b6 44 24 01       	movzbl 0x1(%rsp),%eax
  402cf9:	88 45 01             	mov    %al,0x1(%rbp)
  402cfc:	0f b6 44 24 02       	movzbl 0x2(%rsp),%eax
  402d01:	88 45 02             	mov    %al,0x2(%rbp)
  402d04:	48 8d 6d 03          	lea    0x3(%rbp),%rbp
  402d08:	e9 57 ff ff ff       	jmp    402c64 <urlencode+0x37>
  402d0d:	c6 45 00 2b          	movb   $0x2b,0x0(%rbp)
  402d11:	48 8d 6d 01          	lea    0x1(%rbp),%rbp
  402d15:	e9 4a ff ff ff       	jmp    402c64 <urlencode+0x37>
  402d1a:	b8 ff ff ff ff       	mov    $0xffffffff,%eax
  402d1f:	48 8b 74 24 08       	mov    0x8(%rsp),%rsi
  402d24:	64 48 33 34 25 28 00 	xor    %fs:0x28,%rsi
  402d2b:	00 00 
  402d2d:	75 09                	jne    402d38 <urlencode+0x10b>
  402d2f:	48 83 c4 10          	add    $0x10,%rsp
  402d33:	5b                   	pop    %rbx
  402d34:	5d                   	pop    %rbp
  402d35:	41 5c                	pop    %r12
  402d37:	c3                   	ret    
  402d38:	e8 00 fb ff ff       	call   40283d <__stack_chk_fail>

0000000000402d3d <submitr>:
  402d3d:	f3 0f 1e fa          	endbr64 
  402d41:	41 57                	push   %r15
  402d43:	41 56                	push   %r14
  402d45:	41 55                	push   %r13
  402d47:	41 54                	push   %r12
  402d49:	55                   	push   %rbp
  402d4a:	53                   	push   %rbx
  402d4b:	4c 8d 9c 24 00 60 ff 	lea    -0xa000(%rsp),%r11
  402d52:	ff 
  402d53:	48 81 ec 00 10 00 00 	sub    $0x1000,%rsp
  402d5a:	48 83 0c 24 00       	orq    $0x0,(%rsp)
  402d5f:	4c 39 dc             	cmp    %r11,%rsp
  402d62:	75 ef                	jne    402d53 <submitr+0x16>
  402d64:	48 83 ec 68          	sub    $0x68,%rsp
  402d68:	49 89 fc             	mov    %rdi,%r12
  402d6b:	89 74 24 1c          	mov    %esi,0x1c(%rsp)
  402d6f:	48 89 54 24 08       	mov    %rdx,0x8(%rsp)
  402d74:	49 89 cd             	mov    %rcx,%r13
  402d77:	4c 89 44 24 10       	mov    %r8,0x10(%rsp)
  402d7c:	4d 89 ce             	mov    %r9,%r14
  402d7f:	48 8b ac 24 a0 a0 00 	mov    0xa0a0(%rsp),%rbp
  402d86:	00 
  402d87:	64 48 8b 04 25 28 00 	mov    %fs:0x28,%rax
  402d8e:	00 00 
  402d90:	48 89 84 24 58 a0 00 	mov    %rax,0xa058(%rsp)
  402d97:	00 
  402d98:	31 c0                	xor    %eax,%eax
  402d9a:	c7 44 24 2c 00 00 00 	movl   $0x0,0x2c(%rsp)
  402da1:	00 
  402da2:	ba 00 00 00 00       	mov    $0x0,%edx
  402da7:	be 01 00 00 00       	mov    $0x1,%esi
  402dac:	bf 02 00 00 00       	mov    $0x2,%edi
  402db1:	e8 aa e6 ff ff       	call   401460 <socket@plt>
  402db6:	85 c0                	test   %eax,%eax
  402db8:	0f 88 a5 02 00 00    	js     403063 <submitr+0x326>
  402dbe:	89 c3                	mov    %eax,%ebx
  402dc0:	4c 89 e7             	mov    %r12,%rdi
  402dc3:	e8 78 e5 ff ff       	call   401340 <gethostbyname@plt>
  402dc8:	48 85 c0             	test   %rax,%rax
  402dcb:	0f 84 de 02 00 00    	je     4030af <submitr+0x372>
  402dd1:	4c 8d 7c 24 30       	lea    0x30(%rsp),%r15
  402dd6:	48 c7 44 24 30 00 00 	movq   $0x0,0x30(%rsp)
  402ddd:	00 00 
  402ddf:	48 c7 44 24 38 00 00 	movq   $0x0,0x38(%rsp)
  402de6:	00 00 
  402de8:	66 c7 44 24 30 02 00 	movw   $0x2,0x30(%rsp)
  402def:	48 63 50 14          	movslq 0x14(%rax),%rdx
  402df3:	48 8b 40 18          	mov    0x18(%rax),%rax
  402df7:	48 8b 30             	mov    (%rax),%rsi
  402dfa:	48 8d 7c 24 34       	lea    0x34(%rsp),%rdi
  402dff:	b9 0c 00 00 00       	mov    $0xc,%ecx
  402e04:	e8 47 e5 ff ff       	call   401350 <__memmove_chk@plt>
  402e09:	0f b7 74 24 1c       	movzwl 0x1c(%rsp),%esi
  402e0e:	66 c1 c6 08          	rol    $0x8,%si
  402e12:	66 89 74 24 32       	mov    %si,0x32(%rsp)
  402e17:	ba 10 00 00 00       	mov    $0x10,%edx
  402e1c:	4c 89 fe             	mov    %r15,%rsi
  402e1f:	89 df                	mov    %ebx,%edi
  402e21:	e8 fa e5 ff ff       	call   401420 <connect@plt>
  402e26:	85 c0                	test   %eax,%eax
  402e28:	0f 88 f7 02 00 00    	js     403125 <submitr+0x3e8>
  402e2e:	48 c7 c6 ff ff ff ff 	mov    $0xffffffffffffffff,%rsi
  402e35:	b8 00 00 00 00       	mov    $0x0,%eax
  402e3a:	48 89 f1             	mov    %rsi,%rcx
  402e3d:	4c 89 f7             	mov    %r14,%rdi
  402e40:	f2 ae                	repnz scas %es:(%rdi),%al
  402e42:	48 89 ca             	mov    %rcx,%rdx
  402e45:	48 f7 d2             	not    %rdx
  402e48:	48 89 f1             	mov    %rsi,%rcx
  402e4b:	48 8b 7c 24 08       	mov    0x8(%rsp),%rdi
  402e50:	f2 ae                	repnz scas %es:(%rdi),%al
  402e52:	48 f7 d1             	not    %rcx
  402e55:	49 89 c8             	mov    %rcx,%r8
  402e58:	48 89 f1             	mov    %rsi,%rcx
  402e5b:	4c 89 ef             	mov    %r13,%rdi
  402e5e:	f2 ae                	repnz scas %es:(%rdi),%al
  402e60:	48 f7 d1             	not    %rcx
  402e63:	4d 8d 44 08 fe       	lea    -0x2(%r8,%rcx,1),%r8
  402e68:	48 89 f1             	mov    %rsi,%rcx
  402e6b:	48 8b 7c 24 10       	mov    0x10(%rsp),%rdi
  402e70:	f2 ae                	repnz scas %es:(%rdi),%al
  402e72:	48 89 c8             	mov    %rcx,%rax
  402e75:	48 f7 d0             	not    %rax
  402e78:	49 8d 4c 00 ff       	lea    -0x1(%r8,%rax,1),%rcx
  402e7d:	48 8d 44 52 fd       	lea    -0x3(%rdx,%rdx,2),%rax
  402e82:	48 8d 84 01 80 00 00 	lea    0x80(%rcx,%rax,1),%rax
  402e89:	00 
  402e8a:	48 3d 00 20 00 00    	cmp    $0x2000,%rax
  402e90:	0f 87 f7 02 00 00    	ja     40318d <submitr+0x450>
  402e96:	48 8d b4 24 50 40 00 	lea    0x4050(%rsp),%rsi
  402e9d:	00 
  402e9e:	b9 00 04 00 00       	mov    $0x400,%ecx
  402ea3:	b8 00 00 00 00       	mov    $0x0,%eax
  402ea8:	48 89 f7             	mov    %rsi,%rdi
  402eab:	f3 48 ab             	rep stos %rax,%es:(%rdi)
  402eae:	4c 89 f7             	mov    %r14,%rdi
  402eb1:	e8 77 fd ff ff       	call   402c2d <urlencode>
  402eb6:	85 c0                	test   %eax,%eax
  402eb8:	0f 88 42 03 00 00    	js     403200 <submitr+0x4c3>
  402ebe:	4c 8d bc 24 50 20 00 	lea    0x2050(%rsp),%r15
  402ec5:	00 
  402ec6:	48 83 ec 08          	sub    $0x8,%rsp
  402eca:	41 54                	push   %r12
  402ecc:	48 8d 84 24 60 40 00 	lea    0x4060(%rsp),%rax
  402ed3:	00 
  402ed4:	50                   	push   %rax
  402ed5:	41 55                	push   %r13
  402ed7:	4c 8b 4c 24 30       	mov    0x30(%rsp),%r9
  402edc:	4c 8b 44 24 28       	mov    0x28(%rsp),%r8
  402ee1:	48 8d 0d c0 18 00 00 	lea    0x18c0(%rip),%rcx        # 4047a8 <trans_char+0x38>
  402ee8:	ba 00 20 00 00       	mov    $0x2000,%edx
  402eed:	be 01 00 00 00       	mov    $0x1,%esi
  402ef2:	4c 89 ff             	mov    %r15,%rdi
  402ef5:	b8 00 00 00 00       	mov    $0x0,%eax
  402efa:	e8 51 e5 ff ff       	call   401450 <__sprintf_chk@plt>
  402eff:	48 c7 c1 ff ff ff ff 	mov    $0xffffffffffffffff,%rcx
  402f06:	b8 00 00 00 00       	mov    $0x0,%eax
  402f0b:	4c 89 ff             	mov    %r15,%rdi
  402f0e:	f2 ae                	repnz scas %es:(%rdi),%al
  402f10:	48 f7 d1             	not    %rcx
  402f13:	48 8d 51 ff          	lea    -0x1(%rcx),%rdx
  402f17:	48 83 c4 20          	add    $0x20,%rsp
  402f1b:	4c 89 fe             	mov    %r15,%rsi
  402f1e:	89 df                	mov    %ebx,%edi
  402f20:	e8 82 fb ff ff       	call   402aa7 <rio_writen>
  402f25:	48 85 c0             	test   %rax,%rax
  402f28:	0f 88 5d 03 00 00    	js     40328b <submitr+0x54e>
  402f2e:	4c 8d 64 24 40       	lea    0x40(%rsp),%r12
  402f33:	89 de                	mov    %ebx,%esi
  402f35:	4c 89 e7             	mov    %r12,%rdi
  402f38:	e8 22 fb ff ff       	call   402a5f <rio_readinitb>
  402f3d:	48 8d b4 24 50 20 00 	lea    0x2050(%rsp),%rsi
  402f44:	00 
  402f45:	ba 00 20 00 00       	mov    $0x2000,%edx
  402f4a:	4c 89 e7             	mov    %r12,%rdi
  402f4d:	e8 3a fc ff ff       	call   402b8c <rio_readlineb>
  402f52:	48 85 c0             	test   %rax,%rax
  402f55:	0f 8e 9c 03 00 00    	jle    4032f7 <submitr+0x5ba>
  402f5b:	48 8d 4c 24 2c       	lea    0x2c(%rsp),%rcx
  402f60:	48 8d 94 24 50 60 00 	lea    0x6050(%rsp),%rdx
  402f67:	00 
  402f68:	48 8d bc 24 50 20 00 	lea    0x2050(%rsp),%rdi
  402f6f:	00 
  402f70:	4c 8d 84 24 50 80 00 	lea    0x8050(%rsp),%r8
  402f77:	00 
  402f78:	48 8d 35 bd 18 00 00 	lea    0x18bd(%rip),%rsi        # 40483c <trans_char+0xcc>
  402f7f:	b8 00 00 00 00       	mov    $0x0,%eax
  402f84:	e8 17 e4 ff ff       	call   4013a0 <__isoc99_sscanf@plt>
  402f89:	48 8d b4 24 50 20 00 	lea    0x2050(%rsp),%rsi
  402f90:	00 
  402f91:	b9 03 00 00 00       	mov    $0x3,%ecx
  402f96:	48 8d 3d b6 18 00 00 	lea    0x18b6(%rip),%rdi        # 404853 <trans_char+0xe3>
  402f9d:	f3 a6                	repz cmpsb %es:(%rdi),%ds:(%rsi)
  402f9f:	0f 97 c0             	seta   %al
  402fa2:	1c 00                	sbb    $0x0,%al
  402fa4:	84 c0                	test   %al,%al
  402fa6:	0f 84 cb 03 00 00    	je     403377 <submitr+0x63a>
  402fac:	48 8d b4 24 50 20 00 	lea    0x2050(%rsp),%rsi
  402fb3:	00 
  402fb4:	48 8d 7c 24 40       	lea    0x40(%rsp),%rdi
  402fb9:	ba 00 20 00 00       	mov    $0x2000,%edx
  402fbe:	e8 c9 fb ff ff       	call   402b8c <rio_readlineb>
  402fc3:	48 85 c0             	test   %rax,%rax
  402fc6:	7f c1                	jg     402f89 <submitr+0x24c>
  402fc8:	48 b8 45 72 72 6f 72 	movabs $0x43203a726f727245,%rax
  402fcf:	3a 20 43 
  402fd2:	48 ba 6c 69 65 6e 74 	movabs $0x6e7520746e65696c,%rdx
  402fd9:	20 75 6e 
  402fdc:	48 89 45 00          	mov    %rax,0x0(%rbp)
  402fe0:	48 89 55 08          	mov    %rdx,0x8(%rbp)
  402fe4:	48 b8 61 62 6c 65 20 	movabs $0x206f7420656c6261,%rax
  402feb:	74 6f 20 
  402fee:	48 ba 72 65 61 64 20 	movabs $0x6165682064616572,%rdx
  402ff5:	68 65 61 
  402ff8:	48 89 45 10          	mov    %rax,0x10(%rbp)
  402ffc:	48 89 55 18          	mov    %rdx,0x18(%rbp)
  403000:	48 b8 64 65 72 73 20 	movabs $0x6f72662073726564,%rax
  403007:	66 72 6f 
  40300a:	48 ba 6d 20 41 75 74 	movabs $0x616c6f747541206d,%rdx
  403011:	6f 6c 61 
  403014:	48 89 45 20          	mov    %rax,0x20(%rbp)
  403018:	48 89 55 28          	mov    %rdx,0x28(%rbp)
  40301c:	48 b8 62 20 73 65 72 	movabs $0x7265767265732062,%rax
  403023:	76 65 72 
  403026:	48 89 45 30          	mov    %rax,0x30(%rbp)
  40302a:	c6 45 38 00          	movb   $0x0,0x38(%rbp)
  40302e:	89 df                	mov    %ebx,%edi
  403030:	e8 cb e2 ff ff       	call   401300 <close@plt>
  403035:	b8 ff ff ff ff       	mov    $0xffffffff,%eax
  40303a:	48 8b 9c 24 58 a0 00 	mov    0xa058(%rsp),%rbx
  403041:	00 
  403042:	64 48 33 1c 25 28 00 	xor    %fs:0x28,%rbx
  403049:	00 00 
  40304b:	0f 85 96 04 00 00    	jne    4034e7 <submitr+0x7aa>
  403051:	48 81 c4 68 a0 00 00 	add    $0xa068,%rsp
  403058:	5b                   	pop    %rbx
  403059:	5d                   	pop    %rbp
  40305a:	41 5c                	pop    %r12
  40305c:	41 5d                	pop    %r13
  40305e:	41 5e                	pop    %r14
  403060:	41 5f                	pop    %r15
  403062:	c3                   	ret    
  403063:	48 b8 45 72 72 6f 72 	movabs $0x43203a726f727245,%rax
  40306a:	3a 20 43 
  40306d:	48 ba 6c 69 65 6e 74 	movabs $0x6e7520746e65696c,%rdx
  403074:	20 75 6e 
  403077:	48 89 45 00          	mov    %rax,0x0(%rbp)
  40307b:	48 89 55 08          	mov    %rdx,0x8(%rbp)
  40307f:	48 b8 61 62 6c 65 20 	movabs $0x206f7420656c6261,%rax
  403086:	74 6f 20 
  403089:	48 ba 63 72 65 61 74 	movabs $0x7320657461657263,%rdx
  403090:	65 20 73 
  403093:	48 89 45 10          	mov    %rax,0x10(%rbp)
  403097:	48 89 55 18          	mov    %rdx,0x18(%rbp)
  40309b:	c7 45 20 6f 63 6b 65 	movl   $0x656b636f,0x20(%rbp)
  4030a2:	66 c7 45 24 74 00    	movw   $0x74,0x24(%rbp)
  4030a8:	b8 ff ff ff ff       	mov    $0xffffffff,%eax
  4030ad:	eb 8b                	jmp    40303a <submitr+0x2fd>
  4030af:	48 b8 45 72 72 6f 72 	movabs $0x44203a726f727245,%rax
  4030b6:	3a 20 44 
  4030b9:	48 ba 4e 53 20 69 73 	movabs $0x6e7520736920534e,%rdx
  4030c0:	20 75 6e 
  4030c3:	48 89 45 00          	mov    %rax,0x0(%rbp)
  4030c7:	48 89 55 08          	mov    %rdx,0x8(%rbp)
  4030cb:	48 b8 61 62 6c 65 20 	movabs $0x206f7420656c6261,%rax
  4030d2:	74 6f 20 
  4030d5:	48 ba 72 65 73 6f 6c 	movabs $0x2065766c6f736572,%rdx
  4030dc:	76 65 20 
  4030df:	48 89 45 10          	mov    %rax,0x10(%rbp)
  4030e3:	48 89 55 18          	mov    %rdx,0x18(%rbp)
  4030e7:	48 b8 41 75 74 6f 6c 	movabs $0x2062616c6f747541,%rax
  4030ee:	61 62 20 
  4030f1:	48 ba 73 65 72 76 65 	movabs $0x6120726576726573,%rdx
  4030f8:	72 20 61 
  4030fb:	48 89 45 20          	mov    %rax,0x20(%rbp)
  4030ff:	48 89 55 28          	mov    %rdx,0x28(%rbp)
  403103:	c7 45 30 64 64 72 65 	movl   $0x65726464,0x30(%rbp)
  40310a:	66 c7 45 34 73 73    	movw   $0x7373,0x34(%rbp)
  403110:	c6 45 36 00          	movb   $0x0,0x36(%rbp)
  403114:	89 df                	mov    %ebx,%edi
  403116:	e8 e5 e1 ff ff       	call   401300 <close@plt>
  40311b:	b8 ff ff ff ff       	mov    $0xffffffff,%eax
  403120:	e9 15 ff ff ff       	jmp    40303a <submitr+0x2fd>
  403125:	48 b8 45 72 72 6f 72 	movabs $0x55203a726f727245,%rax
  40312c:	3a 20 55 
  40312f:	48 ba 6e 61 62 6c 65 	movabs $0x6f7420656c62616e,%rdx
  403136:	20 74 6f 
  403139:	48 89 45 00          	mov    %rax,0x0(%rbp)
  40313d:	48 89 55 08          	mov    %rdx,0x8(%rbp)
  403141:	48 b8 20 63 6f 6e 6e 	movabs $0x7463656e6e6f6320,%rax
  403148:	65 63 74 
  40314b:	48 ba 20 74 6f 20 74 	movabs $0x20656874206f7420,%rdx
  403152:	68 65 20 
  403155:	48 89 45 10          	mov    %rax,0x10(%rbp)
  403159:	48 89 55 18          	mov    %rdx,0x18(%rbp)
  40315d:	48 b8 41 75 74 6f 6c 	movabs $0x2062616c6f747541,%rax
  403164:	61 62 20 
  403167:	48 89 45 20          	mov    %rax,0x20(%rbp)
  40316b:	c7 45 28 73 65 72 76 	movl   $0x76726573,0x28(%rbp)
  403172:	66 c7 45 2c 65 72    	movw   $0x7265,0x2c(%rbp)
  403178:	c6 45 2e 00          	movb   $0x0,0x2e(%rbp)
  40317c:	89 df                	mov    %ebx,%edi
  40317e:	e8 7d e1 ff ff       	call   401300 <close@plt>
  403183:	b8 ff ff ff ff       	mov    $0xffffffff,%eax
  403188:	e9 ad fe ff ff       	jmp    40303a <submitr+0x2fd>
  40318d:	48 b8 45 72 72 6f 72 	movabs $0x52203a726f727245,%rax
  403194:	3a 20 52 
  403197:	48 ba 65 73 75 6c 74 	movabs $0x747320746c757365,%rdx
  40319e:	20 73 74 
  4031a1:	48 89 45 00          	mov    %rax,0x0(%rbp)
  4031a5:	48 89 55 08          	mov    %rdx,0x8(%rbp)
  4031a9:	48 b8 72 69 6e 67 20 	movabs $0x6f6f7420676e6972,%rax
  4031b0:	74 6f 6f 
  4031b3:	48 ba 20 6c 61 72 67 	movabs $0x202e656772616c20,%rdx
  4031ba:	65 2e 20 
  4031bd:	48 89 45 10          	mov    %rax,0x10(%rbp)
  4031c1:	48 89 55 18          	mov    %rdx,0x18(%rbp)
  4031c5:	48 b8 49 6e 63 72 65 	movabs $0x6573616572636e49,%rax
  4031cc:	61 73 65 
  4031cf:	48 ba 20 53 55 42 4d 	movabs $0x5254494d42555320,%rdx
  4031d6:	49 54 52 
  4031d9:	48 89 45 20          	mov    %rax,0x20(%rbp)
  4031dd:	48 89 55 28          	mov    %rdx,0x28(%rbp)
  4031e1:	48 b8 5f 4d 41 58 42 	movabs $0x46554258414d5f,%rax
  4031e8:	55 46 00 
  4031eb:	48 89 45 30          	mov    %rax,0x30(%rbp)
  4031ef:	89 df                	mov    %ebx,%edi
  4031f1:	e8 0a e1 ff ff       	call   401300 <close@plt>
  4031f6:	b8 ff ff ff ff       	mov    $0xffffffff,%eax
  4031fb:	e9 3a fe ff ff       	jmp    40303a <submitr+0x2fd>
  403200:	48 b8 45 72 72 6f 72 	movabs $0x52203a726f727245,%rax
  403207:	3a 20 52 
  40320a:	48 ba 65 73 75 6c 74 	movabs $0x747320746c757365,%rdx
  403211:	20 73 74 
  403214:	48 89 45 00          	mov    %rax,0x0(%rbp)
  403218:	48 89 55 08          	mov    %rdx,0x8(%rbp)
  40321c:	48 b8 72 69 6e 67 20 	movabs $0x6e6f6320676e6972,%rax
  403223:	63 6f 6e 
  403226:	48 ba 74 61 69 6e 73 	movabs $0x6e6120736e696174,%rdx
  40322d:	20 61 6e 
  403230:	48 89 45 10          	mov    %rax,0x10(%rbp)
  403234:	48 89 55 18          	mov    %rdx,0x18(%rbp)
  403238:	48 b8 20 69 6c 6c 65 	movabs $0x6c6167656c6c6920,%rax
  40323f:	67 61 6c 
  403242:	48 ba 20 6f 72 20 75 	movabs $0x72706e7520726f20,%rdx
  403249:	6e 70 72 
  40324c:	48 89 45 20          	mov    %rax,0x20(%rbp)
  403250:	48 89 55 28          	mov    %rdx,0x28(%rbp)
  403254:	48 b8 69 6e 74 61 62 	movabs $0x20656c6261746e69,%rax
  40325b:	6c 65 20 
  40325e:	48 ba 63 68 61 72 61 	movabs $0x6574636172616863,%rdx
  403265:	63 74 65 
  403268:	48 89 45 30          	mov    %rax,0x30(%rbp)
  40326c:	48 89 55 38          	mov    %rdx,0x38(%rbp)
  403270:	66 c7 45 40 72 2e    	movw   $0x2e72,0x40(%rbp)
  403276:	c6 45 42 00          	movb   $0x0,0x42(%rbp)
  40327a:	89 df                	mov    %ebx,%edi
  40327c:	e8 7f e0 ff ff       	call   401300 <close@plt>
  403281:	b8 ff ff ff ff       	mov    $0xffffffff,%eax
  403286:	e9 af fd ff ff       	jmp    40303a <submitr+0x2fd>
  40328b:	48 b8 45 72 72 6f 72 	movabs $0x43203a726f727245,%rax
  403292:	3a 20 43 
  403295:	48 ba 6c 69 65 6e 74 	movabs $0x6e7520746e65696c,%rdx
  40329c:	20 75 6e 
  40329f:	48 89 45 00          	mov    %rax,0x0(%rbp)
  4032a3:	48 89 55 08          	mov    %rdx,0x8(%rbp)
  4032a7:	48 b8 61 62 6c 65 20 	movabs $0x206f7420656c6261,%rax
  4032ae:	74 6f 20 
  4032b1:	48 ba 77 72 69 74 65 	movabs $0x6f74206574697277,%rdx
  4032b8:	20 74 6f 
  4032bb:	48 89 45 10          	mov    %rax,0x10(%rbp)
  4032bf:	48 89 55 18          	mov    %rdx,0x18(%rbp)
  4032c3:	48 b8 20 74 68 65 20 	movabs $0x7475412065687420,%rax
  4032ca:	41 75 74 
  4032cd:	48 ba 6f 6c 61 62 20 	movabs $0x7265732062616c6f,%rdx
  4032d4:	73 65 72 
  4032d7:	48 89 45 20          	mov    %rax,0x20(%rbp)
  4032db:	48 89 55 28          	mov    %rdx,0x28(%rbp)
  4032df:	c7 45 30 76 65 72 00 	movl   $0x726576,0x30(%rbp)
  4032e6:	89 df                	mov    %ebx,%edi
  4032e8:	e8 13 e0 ff ff       	call   401300 <close@plt>
  4032ed:	b8 ff ff ff ff       	mov    $0xffffffff,%eax
  4032f2:	e9 43 fd ff ff       	jmp    40303a <submitr+0x2fd>
  4032f7:	48 b8 45 72 72 6f 72 	movabs $0x43203a726f727245,%rax
  4032fe:	3a 20 43 
  403301:	48 ba 6c 69 65 6e 74 	movabs $0x6e7520746e65696c,%rdx
  403308:	20 75 6e 
  40330b:	48 89 45 00          	mov    %rax,0x0(%rbp)
  40330f:	48 89 55 08          	mov    %rdx,0x8(%rbp)
  403313:	48 b8 61 62 6c 65 20 	movabs $0x206f7420656c6261,%rax
  40331a:	74 6f 20 
  40331d:	48 ba 72 65 61 64 20 	movabs $0x7269662064616572,%rdx
  403324:	66 69 72 
  403327:	48 89 45 10          	mov    %rax,0x10(%rbp)
  40332b:	48 89 55 18          	mov    %rdx,0x18(%rbp)
  40332f:	48 b8 73 74 20 68 65 	movabs $0x6564616568207473,%rax
  403336:	61 64 65 
  403339:	48 ba 72 20 66 72 6f 	movabs $0x41206d6f72662072,%rdx
  403340:	6d 20 41 
  403343:	48 89 45 20          	mov    %rax,0x20(%rbp)
  403347:	48 89 55 28          	mov    %rdx,0x28(%rbp)
  40334b:	48 b8 75 74 6f 6c 61 	movabs $0x732062616c6f7475,%rax
  403352:	62 20 73 
  403355:	48 89 45 30          	mov    %rax,0x30(%rbp)
  403359:	c7 45 38 65 72 76 65 	movl   $0x65767265,0x38(%rbp)
  403360:	66 c7 45 3c 72 00    	movw   $0x72,0x3c(%rbp)
  403366:	89 df                	mov    %ebx,%edi
  403368:	e8 93 df ff ff       	call   401300 <close@plt>
  40336d:	b8 ff ff ff ff       	mov    $0xffffffff,%eax
  403372:	e9 c3 fc ff ff       	jmp    40303a <submitr+0x2fd>
  403377:	48 8d b4 24 50 20 00 	lea    0x2050(%rsp),%rsi
  40337e:	00 
  40337f:	48 8d 7c 24 40       	lea    0x40(%rsp),%rdi
  403384:	ba 00 20 00 00       	mov    $0x2000,%edx
  403389:	e8 fe f7 ff ff       	call   402b8c <rio_readlineb>
  40338e:	48 85 c0             	test   %rax,%rax
  403391:	0f 8e 96 00 00 00    	jle    40342d <submitr+0x6f0>
  403397:	44 8b 44 24 2c       	mov    0x2c(%rsp),%r8d
  40339c:	41 81 f8 c8 00 00 00 	cmp    $0xc8,%r8d
  4033a3:	0f 85 05 01 00 00    	jne    4034ae <submitr+0x771>
  4033a9:	48 8d b4 24 50 20 00 	lea    0x2050(%rsp),%rsi
  4033b0:	00 
  4033b1:	48 89 ef             	mov    %rbp,%rdi
  4033b4:	e8 e7 de ff ff       	call   4012a0 <strcpy@plt>
  4033b9:	89 df                	mov    %ebx,%edi
  4033bb:	e8 40 df ff ff       	call   401300 <close@plt>
  4033c0:	b9 04 00 00 00       	mov    $0x4,%ecx
  4033c5:	48 8d 3d 81 14 00 00 	lea    0x1481(%rip),%rdi        # 40484d <trans_char+0xdd>
  4033cc:	48 89 ee             	mov    %rbp,%rsi
  4033cf:	f3 a6                	repz cmpsb %es:(%rdi),%ds:(%rsi)
  4033d1:	0f 97 c0             	seta   %al
  4033d4:	1c 00                	sbb    $0x0,%al
  4033d6:	0f be c0             	movsbl %al,%eax
  4033d9:	85 c0                	test   %eax,%eax
  4033db:	0f 84 59 fc ff ff    	je     40303a <submitr+0x2fd>
  4033e1:	b9 05 00 00 00       	mov    $0x5,%ecx
  4033e6:	48 8d 3d 64 14 00 00 	lea    0x1464(%rip),%rdi        # 404851 <trans_char+0xe1>
  4033ed:	48 89 ee             	mov    %rbp,%rsi
  4033f0:	f3 a6                	repz cmpsb %es:(%rdi),%ds:(%rsi)
  4033f2:	0f 97 c0             	seta   %al
  4033f5:	1c 00                	sbb    $0x0,%al
  4033f7:	0f be c0             	movsbl %al,%eax
  4033fa:	85 c0                	test   %eax,%eax
  4033fc:	0f 84 38 fc ff ff    	je     40303a <submitr+0x2fd>
  403402:	b9 03 00 00 00       	mov    $0x3,%ecx
  403407:	48 8d 3d 48 14 00 00 	lea    0x1448(%rip),%rdi        # 404856 <trans_char+0xe6>
  40340e:	48 89 ee             	mov    %rbp,%rsi
  403411:	f3 a6                	repz cmpsb %es:(%rdi),%ds:(%rsi)
  403413:	0f 97 c0             	seta   %al
  403416:	1c 00                	sbb    $0x0,%al
  403418:	0f be c0             	movsbl %al,%eax
  40341b:	85 c0                	test   %eax,%eax
  40341d:	0f 84 17 fc ff ff    	je     40303a <submitr+0x2fd>
  403423:	b8 ff ff ff ff       	mov    $0xffffffff,%eax
  403428:	e9 0d fc ff ff       	jmp    40303a <submitr+0x2fd>
  40342d:	48 b8 45 72 72 6f 72 	movabs $0x43203a726f727245,%rax
  403434:	3a 20 43 
  403437:	48 ba 6c 69 65 6e 74 	movabs $0x6e7520746e65696c,%rdx
  40343e:	20 75 6e 
  403441:	48 89 45 00          	mov    %rax,0x0(%rbp)
  403445:	48 89 55 08          	mov    %rdx,0x8(%rbp)
  403449:	48 b8 61 62 6c 65 20 	movabs $0x206f7420656c6261,%rax
  403450:	74 6f 20 
  403453:	48 ba 72 65 61 64 20 	movabs $0x6174732064616572,%rdx
  40345a:	73 74 61 
  40345d:	48 89 45 10          	mov    %rax,0x10(%rbp)
  403461:	48 89 55 18          	mov    %rdx,0x18(%rbp)
  403465:	48 b8 74 75 73 20 6d 	movabs $0x7373656d20737574,%rax
  40346c:	65 73 73 
  40346f:	48 ba 61 67 65 20 66 	movabs $0x6d6f726620656761,%rdx
  403476:	72 6f 6d 
  403479:	48 89 45 20          	mov    %rax,0x20(%rbp)
  40347d:	48 89 55 28          	mov    %rdx,0x28(%rbp)
  403481:	48 b8 20 41 75 74 6f 	movabs $0x62616c6f74754120,%rax
  403488:	6c 61 62 
  40348b:	48 ba 20 73 65 72 76 	movabs $0x72657672657320,%rdx
  403492:	65 72 00 
  403495:	48 89 45 30          	mov    %rax,0x30(%rbp)
  403499:	48 89 55 38          	mov    %rdx,0x38(%rbp)
  40349d:	89 df                	mov    %ebx,%edi
  40349f:	e8 5c de ff ff       	call   401300 <close@plt>
  4034a4:	b8 ff ff ff ff       	mov    $0xffffffff,%eax
  4034a9:	e9 8c fb ff ff       	jmp    40303a <submitr+0x2fd>
  4034ae:	4c 8d 8c 24 50 80 00 	lea    0x8050(%rsp),%r9
  4034b5:	00 
  4034b6:	48 8d 0d 4b 13 00 00 	lea    0x134b(%rip),%rcx        # 404808 <trans_char+0x98>
  4034bd:	48 c7 c2 ff ff ff ff 	mov    $0xffffffffffffffff,%rdx
  4034c4:	be 01 00 00 00       	mov    $0x1,%esi
  4034c9:	48 89 ef             	mov    %rbp,%rdi
  4034cc:	b8 00 00 00 00       	mov    $0x0,%eax
  4034d1:	e8 7a df ff ff       	call   401450 <__sprintf_chk@plt>
  4034d6:	89 df                	mov    %ebx,%edi
  4034d8:	e8 23 de ff ff       	call   401300 <close@plt>
  4034dd:	b8 ff ff ff ff       	mov    $0xffffffff,%eax
  4034e2:	e9 53 fb ff ff       	jmp    40303a <submitr+0x2fd>
  4034e7:	e8 51 f3 ff ff       	call   40283d <__stack_chk_fail>

00000000004034ec <init_timeout>:
  4034ec:	f3 0f 1e fa          	endbr64 
  4034f0:	85 ff                	test   %edi,%edi
  4034f2:	74 26                	je     40351a <init_timeout+0x2e>
  4034f4:	53                   	push   %rbx
  4034f5:	89 fb                	mov    %edi,%ebx
  4034f7:	78 1a                	js     403513 <init_timeout+0x27>
  4034f9:	48 8d 35 71 f5 ff ff 	lea    -0xa8f(%rip),%rsi        # 402a71 <sigalrm_handler>
  403500:	bf 0e 00 00 00       	mov    $0xe,%edi
  403505:	e8 26 de ff ff       	call   401330 <signal@plt>
  40350a:	89 df                	mov    %ebx,%edi
  40350c:	e8 df dd ff ff       	call   4012f0 <alarm@plt>
  403511:	5b                   	pop    %rbx
  403512:	c3                   	ret    
  403513:	bb 00 00 00 00       	mov    $0x0,%ebx
  403518:	eb df                	jmp    4034f9 <init_timeout+0xd>
  40351a:	c3                   	ret    

000000000040351b <init_driver>:
  40351b:	f3 0f 1e fa          	endbr64 
  40351f:	41 54                	push   %r12
  403521:	55                   	push   %rbp
  403522:	53                   	push   %rbx
  403523:	48 83 ec 20          	sub    $0x20,%rsp
  403527:	48 89 fd             	mov    %rdi,%rbp
  40352a:	64 48 8b 04 25 28 00 	mov    %fs:0x28,%rax
  403531:	00 00 
  403533:	48 89 44 24 18       	mov    %rax,0x18(%rsp)
  403538:	31 c0                	xor    %eax,%eax
  40353a:	be 01 00 00 00       	mov    $0x1,%esi
  40353f:	bf 0d 00 00 00       	mov    $0xd,%edi
  403544:	e8 e7 dd ff ff       	call   401330 <signal@plt>
  403549:	be 01 00 00 00       	mov    $0x1,%esi
  40354e:	bf 1d 00 00 00       	mov    $0x1d,%edi
  403553:	e8 d8 dd ff ff       	call   401330 <signal@plt>
  403558:	be 01 00 00 00       	mov    $0x1,%esi
  40355d:	bf 1d 00 00 00       	mov    $0x1d,%edi
  403562:	e8 c9 dd ff ff       	call   401330 <signal@plt>
  403567:	ba 00 00 00 00       	mov    $0x0,%edx
  40356c:	be 01 00 00 00       	mov    $0x1,%esi
  403571:	bf 02 00 00 00       	mov    $0x2,%edi
  403576:	e8 e5 de ff ff       	call   401460 <socket@plt>
  40357b:	85 c0                	test   %eax,%eax
  40357d:	0f 88 9c 00 00 00    	js     40361f <init_driver+0x104>
  403583:	89 c3                	mov    %eax,%ebx
  403585:	48 8d 3d cd 12 00 00 	lea    0x12cd(%rip),%rdi        # 404859 <trans_char+0xe9>
  40358c:	e8 af dd ff ff       	call   401340 <gethostbyname@plt>
  403591:	48 85 c0             	test   %rax,%rax
  403594:	0f 84 d1 00 00 00    	je     40366b <init_driver+0x150>
  40359a:	49 89 e4             	mov    %rsp,%r12
  40359d:	48 c7 04 24 00 00 00 	movq   $0x0,(%rsp)
  4035a4:	00 
  4035a5:	48 c7 44 24 08 00 00 	movq   $0x0,0x8(%rsp)
  4035ac:	00 00 
  4035ae:	66 c7 04 24 02 00    	movw   $0x2,(%rsp)
  4035b4:	48 63 50 14          	movslq 0x14(%rax),%rdx
  4035b8:	48 8b 40 18          	mov    0x18(%rax),%rax
  4035bc:	48 8b 30             	mov    (%rax),%rsi
  4035bf:	48 8d 7c 24 04       	lea    0x4(%rsp),%rdi
  4035c4:	b9 0c 00 00 00       	mov    $0xc,%ecx
  4035c9:	e8 82 dd ff ff       	call   401350 <__memmove_chk@plt>
  4035ce:	66 c7 44 24 02 30 39 	movw   $0x3930,0x2(%rsp)
  4035d5:	ba 10 00 00 00       	mov    $0x10,%edx
  4035da:	4c 89 e6             	mov    %r12,%rsi
  4035dd:	89 df                	mov    %ebx,%edi
  4035df:	e8 3c de ff ff       	call   401420 <connect@plt>
  4035e4:	85 c0                	test   %eax,%eax
  4035e6:	0f 88 e7 00 00 00    	js     4036d3 <init_driver+0x1b8>
  4035ec:	89 df                	mov    %ebx,%edi
  4035ee:	e8 0d dd ff ff       	call   401300 <close@plt>
  4035f3:	66 c7 45 00 4f 4b    	movw   $0x4b4f,0x0(%rbp)
  4035f9:	c6 45 02 00          	movb   $0x0,0x2(%rbp)
  4035fd:	b8 00 00 00 00       	mov    $0x0,%eax
  403602:	48 8b 4c 24 18       	mov    0x18(%rsp),%rcx
  403607:	64 48 33 0c 25 28 00 	xor    %fs:0x28,%rcx
  40360e:	00 00 
  403610:	0f 85 10 01 00 00    	jne    403726 <init_driver+0x20b>
  403616:	48 83 c4 20          	add    $0x20,%rsp
  40361a:	5b                   	pop    %rbx
  40361b:	5d                   	pop    %rbp
  40361c:	41 5c                	pop    %r12
  40361e:	c3                   	ret    
  40361f:	48 b8 45 72 72 6f 72 	movabs $0x43203a726f727245,%rax
  403626:	3a 20 43 
  403629:	48 ba 6c 69 65 6e 74 	movabs $0x6e7520746e65696c,%rdx
  403630:	20 75 6e 
  403633:	48 89 45 00          	mov    %rax,0x0(%rbp)
  403637:	48 89 55 08          	mov    %rdx,0x8(%rbp)
  40363b:	48 b8 61 62 6c 65 20 	movabs $0x206f7420656c6261,%rax
  403642:	74 6f 20 
  403645:	48 ba 63 72 65 61 74 	movabs $0x7320657461657263,%rdx
  40364c:	65 20 73 
  40364f:	48 89 45 10          	mov    %rax,0x10(%rbp)
  403653:	48 89 55 18          	mov    %rdx,0x18(%rbp)
  403657:	c7 45 20 6f 63 6b 65 	movl   $0x656b636f,0x20(%rbp)
  40365e:	66 c7 45 24 74 00    	movw   $0x74,0x24(%rbp)
  403664:	b8 ff ff ff ff       	mov    $0xffffffff,%eax
  403669:	eb 97                	jmp    403602 <init_driver+0xe7>
  40366b:	48 b8 45 72 72 6f 72 	movabs $0x44203a726f727245,%rax
  403672:	3a 20 44 
  403675:	48 ba 4e 53 20 69 73 	movabs $0x6e7520736920534e,%rdx
  40367c:	20 75 6e 
  40367f:	48 89 45 00          	mov    %rax,0x0(%rbp)
  403683:	48 89 55 08          	mov    %rdx,0x8(%rbp)
  403687:	48 b8 61 62 6c 65 20 	movabs $0x206f7420656c6261,%rax
  40368e:	74 6f 20 
  403691:	48 ba 72 65 73 6f 6c 	movabs $0x2065766c6f736572,%rdx
  403698:	76 65 20 
  40369b:	48 89 45 10          	mov    %rax,0x10(%rbp)
  40369f:	48 89 55 18          	mov    %rdx,0x18(%rbp)
  4036a3:	48 b8 73 65 72 76 65 	movabs $0x6120726576726573,%rax
  4036aa:	72 20 61 
  4036ad:	48 89 45 20          	mov    %rax,0x20(%rbp)
  4036b1:	c7 45 28 64 64 72 65 	movl   $0x65726464,0x28(%rbp)
  4036b8:	66 c7 45 2c 73 73    	movw   $0x7373,0x2c(%rbp)
  4036be:	c6 45 2e 00          	movb   $0x0,0x2e(%rbp)
  4036c2:	89 df                	mov    %ebx,%edi
  4036c4:	e8 37 dc ff ff       	call   401300 <close@plt>
  4036c9:	b8 ff ff ff ff       	mov    $0xffffffff,%eax
  4036ce:	e9 2f ff ff ff       	jmp    403602 <init_driver+0xe7>
  4036d3:	48 b8 45 72 72 6f 72 	movabs $0x55203a726f727245,%rax
  4036da:	3a 20 55 
  4036dd:	48 ba 6e 61 62 6c 65 	movabs $0x6f7420656c62616e,%rdx
  4036e4:	20 74 6f 
  4036e7:	48 89 45 00          	mov    %rax,0x0(%rbp)
  4036eb:	48 89 55 08          	mov    %rdx,0x8(%rbp)
  4036ef:	48 b8 20 63 6f 6e 6e 	movabs $0x7463656e6e6f6320,%rax
  4036f6:	65 63 74 
  4036f9:	48 ba 20 74 6f 20 73 	movabs $0x76726573206f7420,%rdx
  403700:	65 72 76 
  403703:	48 89 45 10          	mov    %rax,0x10(%rbp)
  403707:	48 89 55 18          	mov    %rdx,0x18(%rbp)
  40370b:	66 c7 45 20 65 72    	movw   $0x7265,0x20(%rbp)
  403711:	c6 45 22 00          	movb   $0x0,0x22(%rbp)
  403715:	89 df                	mov    %ebx,%edi
  403717:	e8 e4 db ff ff       	call   401300 <close@plt>
  40371c:	b8 ff ff ff ff       	mov    $0xffffffff,%eax
  403721:	e9 dc fe ff ff       	jmp    403602 <init_driver+0xe7>
  403726:	e8 12 f1 ff ff       	call   40283d <__stack_chk_fail>

000000000040372b <driver_post>:
  40372b:	f3 0f 1e fa          	endbr64 
  40372f:	53                   	push   %rbx
  403730:	4c 89 cb             	mov    %r9,%rbx
  403733:	45 85 c0             	test   %r8d,%r8d
  403736:	75 18                	jne    403750 <driver_post+0x25>
  403738:	48 85 ff             	test   %rdi,%rdi
  40373b:	74 05                	je     403742 <driver_post+0x17>
  40373d:	80 3f 00             	cmpb   $0x0,(%rdi)
  403740:	75 37                	jne    403779 <driver_post+0x4e>
  403742:	66 c7 03 4f 4b       	movw   $0x4b4f,(%rbx)
  403747:	c6 43 02 00          	movb   $0x0,0x2(%rbx)
  40374b:	44 89 c0             	mov    %r8d,%eax
  40374e:	5b                   	pop    %rbx
  40374f:	c3                   	ret    
  403750:	48 89 ca             	mov    %rcx,%rdx
  403753:	48 8d 35 0f 11 00 00 	lea    0x110f(%rip),%rsi        # 404869 <trans_char+0xf9>
  40375a:	bf 01 00 00 00       	mov    $0x1,%edi
  40375f:	b8 00 00 00 00       	mov    $0x0,%eax
  403764:	e8 57 dc ff ff       	call   4013c0 <__printf_chk@plt>
  403769:	66 c7 03 4f 4b       	movw   $0x4b4f,(%rbx)
  40376e:	c6 43 02 00          	movb   $0x0,0x2(%rbx)
  403772:	b8 00 00 00 00       	mov    $0x0,%eax
  403777:	eb d5                	jmp    40374e <driver_post+0x23>
  403779:	48 83 ec 08          	sub    $0x8,%rsp
  40377d:	41 51                	push   %r9
  40377f:	49 89 c9             	mov    %rcx,%r9
  403782:	49 89 d0             	mov    %rdx,%r8
  403785:	48 89 f9             	mov    %rdi,%rcx
  403788:	48 89 f2             	mov    %rsi,%rdx
  40378b:	be 39 30 00 00       	mov    $0x3039,%esi
  403790:	48 8d 3d c2 10 00 00 	lea    0x10c2(%rip),%rdi        # 404859 <trans_char+0xe9>
  403797:	e8 a1 f5 ff ff       	call   402d3d <submitr>
  40379c:	48 83 c4 10          	add    $0x10,%rsp
  4037a0:	eb ac                	jmp    40374e <driver_post+0x23>

00000000004037a2 <check>:
  4037a2:	f3 0f 1e fa          	endbr64 
  4037a6:	89 f8                	mov    %edi,%eax
  4037a8:	c1 e8 1c             	shr    $0x1c,%eax
  4037ab:	74 1d                	je     4037ca <check+0x28>
  4037ad:	b9 00 00 00 00       	mov    $0x0,%ecx
  4037b2:	83 f9 1f             	cmp    $0x1f,%ecx
  4037b5:	7f 0d                	jg     4037c4 <check+0x22>
  4037b7:	89 f8                	mov    %edi,%eax
  4037b9:	d3 e8                	shr    %cl,%eax
  4037bb:	3c 0a                	cmp    $0xa,%al
  4037bd:	74 11                	je     4037d0 <check+0x2e>
  4037bf:	83 c1 08             	add    $0x8,%ecx
  4037c2:	eb ee                	jmp    4037b2 <check+0x10>
  4037c4:	b8 01 00 00 00       	mov    $0x1,%eax
  4037c9:	c3                   	ret    
  4037ca:	b8 00 00 00 00       	mov    $0x0,%eax
  4037cf:	c3                   	ret    
  4037d0:	b8 00 00 00 00       	mov    $0x0,%eax
  4037d5:	c3                   	ret    

00000000004037d6 <gencookie>:
  4037d6:	f3 0f 1e fa          	endbr64 
  4037da:	53                   	push   %rbx
  4037db:	83 c7 01             	add    $0x1,%edi
  4037de:	e8 8d da ff ff       	call   401270 <srandom@plt>
  4037e3:	e8 a8 db ff ff       	call   401390 <random@plt>
  4037e8:	48 89 c7             	mov    %rax,%rdi
  4037eb:	89 c3                	mov    %eax,%ebx
  4037ed:	e8 b0 ff ff ff       	call   4037a2 <check>
  4037f2:	85 c0                	test   %eax,%eax
  4037f4:	74 ed                	je     4037e3 <gencookie+0xd>
  4037f6:	89 d8                	mov    %ebx,%eax
  4037f8:	5b                   	pop    %rbx
  4037f9:	c3                   	ret    
  4037fa:	66 0f 1f 44 00 00    	nopw   0x0(%rax,%rax,1)

0000000000403800 <__libc_csu_init>:
  403800:	f3 0f 1e fa          	endbr64 
  403804:	41 57                	push   %r15
  403806:	4c 8d 3d 03 36 00 00 	lea    0x3603(%rip),%r15        # 406e10 <__frame_dummy_init_array_entry>
  40380d:	41 56                	push   %r14
  40380f:	49 89 d6             	mov    %rdx,%r14
  403812:	41 55                	push   %r13
  403814:	49 89 f5             	mov    %rsi,%r13
  403817:	41 54                	push   %r12
  403819:	41 89 fc             	mov    %edi,%r12d
  40381c:	55                   	push   %rbp
  40381d:	48 8d 2d f4 35 00 00 	lea    0x35f4(%rip),%rbp        # 406e18 <__do_global_dtors_aux_fini_array_entry>
  403824:	53                   	push   %rbx
  403825:	4c 29 fd             	sub    %r15,%rbp
  403828:	48 83 ec 08          	sub    $0x8,%rsp
  40382c:	e8 cf d7 ff ff       	call   401000 <_init>
  403831:	48 c1 fd 03          	sar    $0x3,%rbp
  403835:	74 1f                	je     403856 <__libc_csu_init+0x56>
  403837:	31 db                	xor    %ebx,%ebx
  403839:	0f 1f 80 00 00 00 00 	nopl   0x0(%rax)
  403840:	4c 89 f2             	mov    %r14,%rdx
  403843:	4c 89 ee             	mov    %r13,%rsi
  403846:	44 89 e7             	mov    %r12d,%edi
  403849:	41 ff 14 df          	call   *(%r15,%rbx,8)
  40384d:	48 83 c3 01          	add    $0x1,%rbx
  403851:	48 39 dd             	cmp    %rbx,%rbp
  403854:	75 ea                	jne    403840 <__libc_csu_init+0x40>
  403856:	48 83 c4 08          	add    $0x8,%rsp
  40385a:	5b                   	pop    %rbx
  40385b:	5d                   	pop    %rbp
  40385c:	41 5c                	pop    %r12
  40385e:	41 5d                	pop    %r13
  403860:	41 5e                	pop    %r14
  403862:	41 5f                	pop    %r15
  403864:	c3                   	ret    
  403865:	66 66 2e 0f 1f 84 00 	data16 cs nopw 0x0(%rax,%rax,1)
  40386c:	00 00 00 00 

0000000000403870 <__libc_csu_fini>:
  403870:	f3 0f 1e fa          	endbr64 
  403874:	c3                   	ret    

Disassembly of section .fini:

0000000000403878 <_fini>:
  403878:	f3 0f 1e fa          	endbr64 
  40387c:	48 83 ec 08          	sub    $0x8,%rsp
  403880:	48 83 c4 08          	add    $0x8,%rsp
  403884:	c3                   	ret    
